Component: Arm Compiler for Embedded 6.19 Tool: armlink [5e73cb00]

==============================================================================

Section Cross References

    main.o(.text) refers to system_gd32f1x0.o(.text) for SystemCoreClockUpdate
    main.o(.text) refers to system_gd32f1x0.o(.data.SystemCoreClock) for SystemCoreClock
    main.o(.text) refers to setup.o(.text) for Watchdog_init
    main.o(.text) refers to gd32f1x0_gpio.o(.text) for gpio_bit_write
    main.o(.text) refers to gd32f1x0_fwdgt.o(.text) for fwdgt_counter_reload
    main.o(.text) refers to bldc.o(.bss.buzzerFreq) for buzzerFreq
    main.o(.text) refers to it.o(.text) for Delay
    main.o(.text) refers to main.o(.bss.steerCounter) for steerCounter
    main.o(.text) refers to commssteering.o(.text) for SendSteerDevice
    main.o(.text) refers to main.o(.bss.speed) for speed
    main.o(.text) refers to fflt_clz.o(x$fpl$fflt) for __aeabi_i2f
    main.o(.text) refers to f2d.o(x$fpl$f2d) for __aeabi_f2d
    main.o(.text) refers to dmul.o(x$fpl$dmul) for __aeabi_dmul
    main.o(.text) refers to ddiv.o(x$fpl$ddiv) for __aeabi_ddiv
    main.o(.text) refers to daddsub_clz.o(x$fpl$dadd) for __aeabi_dadd
    main.o(.text) refers to d2f.o(x$fpl$d2f) for __aeabi_d2f
    main.o(.text) refers to main.o(.bss.steer) for steer
    main.o(.text) refers to fmul.o(x$fpl$fmul) for __aeabi_fmul
    main.o(.text) refers to ffix.o(x$fpl$ffix) for __aeabi_f2iz
    main.o(.text) refers to faddsub_clz.o(x$fpl$fsub) for __aeabi_fsub
    main.o(.text) refers to fdiv.o(x$fpl$fdiv) for __aeabi_fdiv
    main.o(.text) refers to faddsub_clz.o(x$fpl$fadd) for __aeabi_fadd
    main.o(.text) refers to main.o(.rodata.lookUpTableAngle) for lookUpTableAngle
    main.o(.text) refers to fcmp.o(x$fpl$fcmp) for __aeabi_fcmplt
    main.o(.text) refers to bldc.o(.text) for SetEnable
    main.o(.text) refers to it.o(.data.timedOut) for timedOut
    main.o(.text) refers to bldc.o(.bss.currentDC) for currentDC
    main.o(.text) refers to bldc.o(.bss.realSpeed) for realSpeed
    main.o(.text) refers to bldc.o(.data.batteryVoltage) for batteryVoltage
    main.o(.text) refers to commsmasterslave.o(.text) for SendSlave
    main.o(.text) refers to main.o(.data.beepsBackwards) for beepsBackwards
    main.o(.text) refers to dcmp.o(x$fpl$fcmp) for __aeabi_dcmple
    main.o(.text) refers to bldc.o(.bss.buzzerPattern) for buzzerPattern
    main.o(.text) refers to main.o(.bss.inactivity_timeout_counter) for inactivity_timeout_counter
    main.o(.text) refers to gd32f1x0_usart.o(.text) for usart_deinit
    main.o(.ARM.exidx) refers to main.o(.text) for [Anonymous Symbol]
    bldc.o(.text) refers to bldc.o(.bss.bldc_enable) for bldc_enable
    bldc.o(.text) refers to bldc.o(.bss.bldc_inputFilterPwm) for bldc_inputFilterPwm
    bldc.o(.text) refers to bldc.o(.bss.offsetcount) for offsetcount
    bldc.o(.text) refers to bldc.o(.bss.adc_buffer) for adc_buffer
    bldc.o(.text) refers to bldc.o(.data.offsetdc) for offsetdc
    bldc.o(.text) refers to bldc.o(.bss.buzzerTimer) for buzzerTimer
    bldc.o(.text) refers to bldc.o(.data.batteryVoltage) for batteryVoltage
    bldc.o(.text) refers to f2d.o(x$fpl$f2d) for __aeabi_f2d
    bldc.o(.text) refers to dflt_clz.o(x$fpl$dfltu) for __aeabi_ui2d
    bldc.o(.text) refers to dmul.o(x$fpl$dmul) for __aeabi_dmul
    bldc.o(.text) refers to daddsub_clz.o(x$fpl$dadd) for __aeabi_dadd
    bldc.o(.text) refers to d2f.o(x$fpl$d2f) for __aeabi_d2f
    bldc.o(.text) refers to bldc.o(.bss.buzzerFreq) for buzzerFreq
    bldc.o(.text) refers to bldc.o(.bss.buzzerPattern) for buzzerPattern
    bldc.o(.text) refers to gd32f1x0_gpio.o(.text) for gpio_bit_write
    bldc.o(.text) refers to dflt_clz.o(x$fpl$dflt) for __aeabi_i2d
    bldc.o(.text) refers to bldc.o(.bss.currentDC) for currentDC
    bldc.o(.text) refers to fcmp.o(x$fpl$fcmp) for __aeabi_fcmpgt
    bldc.o(.text) refers to it.o(.data.timedOut) for timedOut
    bldc.o(.text) refers to gd32f1x0_timer.o(.text) for timer_automatic_output_enable
    bldc.o(.text) refers to bldc.o(.bss.hall_a) for hall_a
    bldc.o(.text) refers to bldc.o(.bss.hall_b) for hall_b
    bldc.o(.text) refers to bldc.o(.bss.hall_c) for hall_c
    bldc.o(.text) refers to bldc.o(.bss.hall) for hall
    bldc.o(.text) refers to bldc.o(.rodata.hall_to_pos) for hall_to_pos
    bldc.o(.text) refers to bldc.o(.bss.filter_reg) for filter_reg
    bldc.o(.text) refers to bldc.o(.bss.pos) for pos
    bldc.o(.text) refers to bldc.o(.bss.bldc_outputFilterPwm) for bldc_outputFilterPwm
    bldc.o(.text) refers to bldc.o(.bss.buzzerToggle) for buzzerToggle
    bldc.o(.text) refers to bldc.o(.bss.speedCounter) for speedCounter
    bldc.o(.text) refers to bldc.o(.bss.lastPos) for lastPos
    bldc.o(.text) refers to fflt_clz.o(x$fpl$ffltu) for __aeabi_ui2f
    bldc.o(.text) refers to fdiv.o(x$fpl$fdiv) for __aeabi_fdiv
    bldc.o(.text) refers to bldc.o(.bss.realSpeed) for realSpeed
    bldc.o(.ARM.exidx) refers to bldc.o(.text) for [Anonymous Symbol]
    setup.o(.text) refers to gd32f1x0_misc.o(.text) for nvic_priority_group_set
    setup.o(.text) refers to gd32f1x0_rcu.o(.text) for rcu_flag_get
    setup.o(.text) refers to gd32f1x0_fwdgt.o(.text) for fwdgt_config
    setup.o(.text) refers to gd32f1x0_timer.o(.text) for timer_deinit
    setup.o(.text) refers to setup.o(.bss.timeoutTimer_paramter_struct) for timeoutTimer_paramter_struct
    setup.o(.text) refers to gd32f1x0_gpio.o(.text) for gpio_mode_set
    setup.o(.text) refers to setup.o(.bss.timerBldc_paramter_struct) for timerBldc_paramter_struct
    setup.o(.text) refers to setup.o(.bss.timerBldc_oc_parameter_struct) for timerBldc_oc_parameter_struct
    setup.o(.text) refers to setup.o(.bss.timerBldc_break_parameter_struct) for timerBldc_break_parameter_struct
    setup.o(.text) refers to gd32f1x0_dma.o(.text) for dma_deinit
    setup.o(.text) refers to setup.o(.bss.dma_init_struct_adc) for dma_init_struct_adc
    setup.o(.text) refers to bldc.o(.bss.adc_buffer) for adc_buffer
    setup.o(.text) refers to gd32f1x0_adc.o(.text) for adc_channel_length_config
    setup.o(.text) refers to gd32f1x0_usart.o(.text) for usart_baudrate_set
    setup.o(.text) refers to setup.o(.bss.dma_init_struct_usart) for dma_init_struct_usart
    setup.o(.text) refers to setup.o(.bss.usartMasterSlave_rx_buf) for usartMasterSlave_rx_buf
    setup.o(.text) refers to setup.o(.bss.usartSteer_COM_rx_buf) for usartSteer_COM_rx_buf
    setup.o(.ARM.exidx) refers to setup.o(.text) for [Anonymous Symbol]
    it.o(.text) refers to it.o(.bss.msTicks) for msTicks
    it.o(.text) refers to it.o(.bss.timeoutCounter_ms) for timeoutCounter_ms
    it.o(.text) refers to it.o(.data.timedOut) for timedOut
    it.o(.text) refers to main.o(.bss.steer) for steer
    it.o(.text) refers to main.o(.bss.speed) for speed
    it.o(.text) refers to main.o(.data.beepsBackwards) for beepsBackwards
    it.o(.text) refers to gd32f1x0_timer.o(.text) for timer_interrupt_flag_clear
    it.o(.text) refers to gd32f1x0_adc.o(.text) for adc_software_trigger_enable
    it.o(.text) refers to bldc.o(.text) for CalculateBLDC
    it.o(.text) refers to gd32f1x0_dma.o(.text) for dma_interrupt_flag_get
    it.o(.text) refers to commssteering.o(.text) for UpdateUSARTSteerInput
    it.o(.text) refers to commsmasterslave.o(.text) for UpdateUSARTMasterSlaveInput
    it.o(.ARM.exidx) refers to it.o(.text) for [Anonymous Symbol]
    comms.o(.text) refers to gd32f1x0_usart.o(.text) for usart_data_transmit
    comms.o(.ARM.exidx) refers to comms.o(.text) for [Anonymous Symbol]
    commssteering.o(.text) refers to bldc.o(.data.batteryVoltage) for batteryVoltage
    commssteering.o(.text) refers to fmul.o(x$fpl$fmul) for __aeabi_fmul
    commssteering.o(.text) refers to ffix.o(x$fpl$ffix) for __aeabi_f2iz
    commssteering.o(.text) refers to bldc.o(.bss.currentDC) for currentDC
    commssteering.o(.text) refers to main.o(.bss.oDataSlave) for oDataSlave
    commssteering.o(.text) refers to bldc.o(.bss.realSpeed) for realSpeed
    commssteering.o(.text) refers to comms.o(.text) for CalcCRC
    commssteering.o(.text) refers to setup.o(.bss.usartSteer_COM_rx_buf) for usartSteer_COM_rx_buf
    commssteering.o(.text) refers to commssteering.o(.data.iReceivePos) for iReceivePos
    commssteering.o(.text) refers to commssteering.o(.bss.aReceiveBuffer) for aReceiveBuffer
    commssteering.o(.text) refers to main.o(.bss.speed) for speed
    commssteering.o(.text) refers to main.o(.bss.steer) for steer
    commssteering.o(.text) refers to it.o(.text) for ResetTimeout
    commssteering.o(.ARM.exidx) refers to commssteering.o(.text) for [Anonymous Symbol]
    commsmasterslave.o(.text) refers to setup.o(.bss.usartMasterSlave_rx_buf) for usartMasterSlave_rx_buf
    commsmasterslave.o(.text) refers to commsmasterslave.o(.data.iReceivePos) for iReceivePos
    commsmasterslave.o(.text) refers to commsmasterslave.o(.bss.aReceiveBuffer) for aReceiveBuffer
    commsmasterslave.o(.text) refers to comms.o(.text) for CalcCRC
    commsmasterslave.o(.text) refers to main.o(.data.beepsBackwards) for beepsBackwards
    commsmasterslave.o(.text) refers to main.o(.bss.oDataSlave) for oDataSlave
    commsmasterslave.o(.text) refers to gd32f1x0_gpio.o(.text) for gpio_bit_write
    commsmasterslave.o(.ARM.exidx) refers to commsmasterslave.o(.text) for [Anonymous Symbol]
    gd32f1x0_adc.o(.text) refers to gd32f1x0_rcu.o(.text) for rcu_periph_reset_enable
    gd32f1x0_adc.o(.ARM.exidx) refers to gd32f1x0_adc.o(.text) for [Anonymous Symbol]
    gd32f1x0_dbg.o(.ARM.exidx) refers to gd32f1x0_dbg.o(.text) for [Anonymous Symbol]
    gd32f1x0_dma.o(.ARM.exidx) refers to gd32f1x0_dma.o(.text) for [Anonymous Symbol]
    gd32f1x0_fwdgt.o(.ARM.exidx) refers to gd32f1x0_fwdgt.o(.text) for [Anonymous Symbol]
    gd32f1x0_gpio.o(.text) refers to gd32f1x0_gpio.o(.rodata..Lswitch.table.gpio_deinit.1) for .Lswitch.table.gpio_deinit.1
    gd32f1x0_gpio.o(.text) refers to gd32f1x0_rcu.o(.text) for rcu_periph_reset_enable
    gd32f1x0_gpio.o(.ARM.exidx) refers to gd32f1x0_gpio.o(.text) for [Anonymous Symbol]
    gd32f1x0_i2c.o(.text) refers to gd32f1x0_rcu.o(.text) for rcu_periph_reset_enable
    gd32f1x0_i2c.o(.ARM.exidx) refers to gd32f1x0_i2c.o(.text) for [Anonymous Symbol]
    gd32f1x0_misc.o(.ARM.exidx) refers to gd32f1x0_misc.o(.text) for [Anonymous Symbol]
    gd32f1x0_pmu.o(.text) refers to gd32f1x0_rcu.o(.text) for rcu_periph_reset_enable
    gd32f1x0_pmu.o(.text) refers to gd32f1x0_pmu.o(.bss.pmu_to_deepsleepmode.reg_snap.1) for pmu_to_deepsleepmode.reg_snap.1
    gd32f1x0_pmu.o(.text) refers to gd32f1x0_pmu.o(.bss.pmu_to_deepsleepmode.reg_snap.0) for pmu_to_deepsleepmode.reg_snap.0
    gd32f1x0_pmu.o(.text) refers to gd32f1x0_pmu.o(.bss.pmu_to_deepsleepmode.reg_snap.2) for pmu_to_deepsleepmode.reg_snap.2
    gd32f1x0_pmu.o(.text) refers to gd32f1x0_pmu.o(.bss.pmu_to_deepsleepmode.reg_snap.3) for pmu_to_deepsleepmode.reg_snap.3
    gd32f1x0_pmu.o(.ARM.exidx) refers to gd32f1x0_pmu.o(.text) for [Anonymous Symbol]
    gd32f1x0_rcu.o(.text) refers to gd32f1x0_rcu.o(.rodata.cst8) for .L__const.rcu_clock_freq_get.apb2_exp
    gd32f1x0_rcu.o(.ARM.exidx) refers to gd32f1x0_rcu.o(.text) for [Anonymous Symbol]
    gd32f1x0_syscfg.o(.text) refers to gd32f1x0_rcu.o(.text) for rcu_periph_reset_enable
    gd32f1x0_syscfg.o(.ARM.exidx) refers to gd32f1x0_syscfg.o(.text) for [Anonymous Symbol]
    gd32f1x0_timer.o(.text) refers to gd32f1x0_rcu.o(.text) for rcu_periph_reset_enable
    gd32f1x0_timer.o(.ARM.exidx) refers to gd32f1x0_timer.o(.text) for [Anonymous Symbol]
    gd32f1x0_usart.o(.text) refers to gd32f1x0_rcu.o(.text) for rcu_periph_reset_enable
    gd32f1x0_usart.o(.ARM.exidx) refers to gd32f1x0_usart.o(.text) for [Anonymous Symbol]
    gd32f1x0_wwdgt.o(.text) refers to gd32f1x0_rcu.o(.text) for rcu_periph_reset_enable
    gd32f1x0_wwdgt.o(.ARM.exidx) refers to gd32f1x0_wwdgt.o(.text) for [Anonymous Symbol]
    startup_gd32f1x0.o(STACK) refers (Special) to heapauxi.o(.text) for __use_two_region_memory
    startup_gd32f1x0.o(HEAP) refers (Special) to heapauxi.o(.text) for __use_two_region_memory
    startup_gd32f1x0.o(RESET) refers (Special) to heapauxi.o(.text) for __use_two_region_memory
    startup_gd32f1x0.o(RESET) refers to startup_gd32f1x0.o(STACK) for __initial_sp
    startup_gd32f1x0.o(RESET) refers to startup_gd32f1x0.o(.text) for Reset_Handler
    startup_gd32f1x0.o(RESET) refers to it.o(.text) for NMI_Handler
    startup_gd32f1x0.o(.text) refers (Special) to heapauxi.o(.text) for __use_two_region_memory
    startup_gd32f1x0.o(.text) refers to system_gd32f1x0.o(.text) for SystemInit
    startup_gd32f1x0.o(.text) refers to __main.o(!!!main) for __main
    startup_gd32f1x0.o(.text) refers to startup_gd32f1x0.o(HEAP) for Heap_Mem
    startup_gd32f1x0.o(.text) refers to startup_gd32f1x0.o(STACK) for Stack_Mem
    system_gd32f1x0.o(.text) refers to system_gd32f1x0.o(.data.SystemCoreClock) for SystemCoreClock
    system_gd32f1x0.o(.ARM.exidx) refers to system_gd32f1x0.o(.text) for [Anonymous Symbol]
    __main.o(!!!main) refers to __rtentry.o(.ARM.Collect$$rtentry$$00000000) for __rt_entry
    d2f.o(x$fpl$d2f) refers (Special) to usenofp.o(x$fpl$usenofp) for __I$use$fp
    d2f.o(x$fpl$d2f) refers to fretinf.o(x$fpl$fretinf) for __fpl_fretinf
    d2f.o(x$fpl$d2f) refers to dnaninf.o(x$fpl$dnaninf) for __fpl_dnaninf
    daddsub_clz.o(x$fpl$dadd) refers (Special) to usenofp.o(x$fpl$usenofp) for __I$use$fp
    daddsub_clz.o(x$fpl$dadd) refers to daddsub_clz.o(x$fpl$dsub) for _dsub1
    daddsub_clz.o(x$fpl$dadd) refers to dretinf.o(x$fpl$dretinf) for __fpl_dretinf
    daddsub_clz.o(x$fpl$dadd) refers to dnaninf.o(x$fpl$dnaninf) for __fpl_dnaninf
    daddsub_clz.o(x$fpl$drsb) refers (Special) to usenofp.o(x$fpl$usenofp) for __I$use$fp
    daddsub_clz.o(x$fpl$drsb) refers to daddsub_clz.o(x$fpl$dadd) for _dadd1
    daddsub_clz.o(x$fpl$drsb) refers to daddsub_clz.o(x$fpl$dsub) for _dsub1
    daddsub_clz.o(x$fpl$dsub) refers (Special) to usenofp.o(x$fpl$usenofp) for __I$use$fp
    daddsub_clz.o(x$fpl$dsub) refers to daddsub_clz.o(x$fpl$dadd) for _dadd1
    daddsub_clz.o(x$fpl$dsub) refers to dnaninf.o(x$fpl$dnaninf) for __fpl_dnaninf
    dcmp.o(x$fpl$fcmp) refers (Special) to usenofp.o(x$fpl$usenofp) for __I$use$fp
    dcmp.o(x$fpl$fcmp) refers to deqf.o(x$fpl$deqf) for _dcmpeq
    dcmp.o(x$fpl$fcmp) refers to dgeqf.o(x$fpl$dgeqf) for _dcmpge
    dcmp.o(x$fpl$fcmp) refers to dleqf.o(x$fpl$dleqf) for _dcmple
    ddiv.o(x$fpl$drdiv) refers (Special) to usenofp.o(x$fpl$usenofp) for __I$use$fp
    ddiv.o(x$fpl$drdiv) refers to ddiv.o(x$fpl$ddiv) for ddiv_entry
    ddiv.o(x$fpl$ddiv) refers (Special) to usenofp.o(x$fpl$usenofp) for __I$use$fp
    ddiv.o(x$fpl$ddiv) refers to dretinf.o(x$fpl$dretinf) for __fpl_dretinf
    ddiv.o(x$fpl$ddiv) refers to dnaninf.o(x$fpl$dnaninf) for __fpl_dnaninf
    dflt_clz.o(x$fpl$dfltu) refers (Special) to usenofp.o(x$fpl$usenofp) for __I$use$fp
    dflt_clz.o(x$fpl$dflt) refers (Special) to usenofp.o(x$fpl$usenofp) for __I$use$fp
    dflt_clz.o(x$fpl$dfltn) refers (Special) to usenofp.o(x$fpl$usenofp) for __I$use$fp
    dmul.o(x$fpl$dmul) refers (Special) to usenofp.o(x$fpl$usenofp) for __I$use$fp
    dmul.o(x$fpl$dmul) refers to dretinf.o(x$fpl$dretinf) for __fpl_dretinf
    dmul.o(x$fpl$dmul) refers to dnaninf.o(x$fpl$dnaninf) for __fpl_dnaninf
    f2d.o(x$fpl$f2d) refers (Special) to usenofp.o(x$fpl$usenofp) for __I$use$fp
    f2d.o(x$fpl$f2d) refers to fnaninf.o(x$fpl$fnaninf) for __fpl_fnaninf
    f2d.o(x$fpl$f2d) refers to dretinf.o(x$fpl$dretinf) for __fpl_dretinf
    faddsub_clz.o(x$fpl$fadd) refers (Special) to usenofp.o(x$fpl$usenofp) for __I$use$fp
    faddsub_clz.o(x$fpl$fadd) refers to faddsub_clz.o(x$fpl$fsub) for _fsub1
    faddsub_clz.o(x$fpl$fadd) refers to fretinf.o(x$fpl$fretinf) for __fpl_fretinf
    faddsub_clz.o(x$fpl$fadd) refers to fnaninf.o(x$fpl$fnaninf) for __fpl_fnaninf
    faddsub_clz.o(x$fpl$frsb) refers (Special) to usenofp.o(x$fpl$usenofp) for __I$use$fp
    faddsub_clz.o(x$fpl$frsb) refers to faddsub_clz.o(x$fpl$fadd) for _fadd1
    faddsub_clz.o(x$fpl$frsb) refers to faddsub_clz.o(x$fpl$fsub) for _fsub1
    faddsub_clz.o(x$fpl$fsub) refers (Special) to usenofp.o(x$fpl$usenofp) for __I$use$fp
    faddsub_clz.o(x$fpl$fsub) refers to faddsub_clz.o(x$fpl$fadd) for _fadd1
    faddsub_clz.o(x$fpl$fsub) refers to fnaninf.o(x$fpl$fnaninf) for __fpl_fnaninf
    fcmp.o(x$fpl$fcmp) refers (Special) to usenofp.o(x$fpl$usenofp) for __I$use$fp
    fcmp.o(x$fpl$fcmp) refers to feqf.o(x$fpl$feqf) for _fcmpeq
    fcmp.o(x$fpl$fcmp) refers to fgeqf.o(x$fpl$fgeqf) for _fcmpge
    fcmp.o(x$fpl$fcmp) refers to fleqf.o(x$fpl$fleqf) for _fcmple
    fdiv.o(x$fpl$frdiv) refers (Special) to usenofp.o(x$fpl$usenofp) for __I$use$fp
    fdiv.o(x$fpl$frdiv) refers to fdiv.o(x$fpl$fdiv) for _fdiv1
    fdiv.o(x$fpl$fdiv) refers (Special) to usenofp.o(x$fpl$usenofp) for __I$use$fp
    fdiv.o(x$fpl$fdiv) refers to fretinf.o(x$fpl$fretinf) for __fpl_fretinf
    fdiv.o(x$fpl$fdiv) refers to fnaninf.o(x$fpl$fnaninf) for __fpl_fnaninf
    ffix.o(x$fpl$ffix) refers (Special) to usenofp.o(x$fpl$usenofp) for __I$use$fp
    ffix.o(x$fpl$ffix) refers to fnaninf.o(x$fpl$fnaninf) for __fpl_fnaninf
    ffix.o(x$fpl$ffixr) refers (Special) to usenofp.o(x$fpl$usenofp) for __I$use$fp
    ffix.o(x$fpl$ffixr) refers to fnaninf.o(x$fpl$fnaninf) for __fpl_fnaninf
    fflt_clz.o(x$fpl$ffltu) refers (Special) to usenofp.o(x$fpl$usenofp) for __I$use$fp
    fflt_clz.o(x$fpl$fflt) refers (Special) to usenofp.o(x$fpl$usenofp) for __I$use$fp
    fflt_clz.o(x$fpl$ffltn) refers (Special) to usenofp.o(x$fpl$usenofp) for __I$use$fp
    fmul.o(x$fpl$fmul) refers (Special) to usenofp.o(x$fpl$usenofp) for __I$use$fp
    fmul.o(x$fpl$fmul) refers to fretinf.o(x$fpl$fretinf) for __fpl_fretinf
    fmul.o(x$fpl$fmul) refers to fnaninf.o(x$fpl$fnaninf) for __fpl_fnaninf
    __rtentry.o(.ARM.Collect$$rtentry$$00000000) refers (Special) to __rtentry2.o(.ARM.Collect$$rtentry$$0000000A) for __rt_entry_li
    __rtentry.o(.ARM.Collect$$rtentry$$00000000) refers (Special) to __rtentry2.o(.ARM.Collect$$rtentry$$0000000D) for __rt_entry_main
    __rtentry.o(.ARM.Collect$$rtentry$$00000000) refers (Special) to __rtentry2.o(.ARM.Collect$$rtentry$$0000000C) for __rt_entry_postli_1
    __rtentry.o(.ARM.Collect$$rtentry$$00000000) refers (Special) to __rtentry2.o(.ARM.Collect$$rtentry$$00000009) for __rt_entry_postsh_1
    __rtentry.o(.ARM.Collect$$rtentry$$00000000) refers (Special) to __rtentry2.o(.ARM.Collect$$rtentry$$00000002) for __rt_entry_presh_1
    __rtentry.o(.ARM.Collect$$rtentry$$00000000) refers (Special) to __rtentry4.o(.ARM.Collect$$rtentry$$00000004) for __rt_entry_sh
    deqf.o(x$fpl$deqf) refers (Special) to usenofp.o(x$fpl$usenofp) for __I$use$fp
    deqf.o(x$fpl$deqf) refers to dnaninf.o(x$fpl$dnaninf) for __fpl_dnaninf
    deqf.o(x$fpl$deqf) refers to dcmpi.o(x$fpl$dcmpinf) for __fpl_dcmp_Inf
    dgeqf.o(x$fpl$dgeqf) refers (Special) to usenofp.o(x$fpl$usenofp) for __I$use$fp
    dgeqf.o(x$fpl$dgeqf) refers to dnaninf.o(x$fpl$dnaninf) for __fpl_dnaninf
    dgeqf.o(x$fpl$dgeqf) refers to dcmpi.o(x$fpl$dcmpinf) for __fpl_dcmp_Inf
    dleqf.o(x$fpl$dleqf) refers (Special) to usenofp.o(x$fpl$usenofp) for __I$use$fp
    dleqf.o(x$fpl$dleqf) refers to dnaninf.o(x$fpl$dnaninf) for __fpl_dnaninf
    dleqf.o(x$fpl$dleqf) refers to dcmpi.o(x$fpl$dcmpinf) for __fpl_dcmp_Inf
    dnaninf.o(x$fpl$dnaninf) refers (Special) to usenofp.o(x$fpl$usenofp) for __I$use$fp
    dretinf.o(x$fpl$dretinf) refers (Special) to usenofp.o(x$fpl$usenofp) for __I$use$fp
    feqf.o(x$fpl$feqf) refers (Special) to usenofp.o(x$fpl$usenofp) for __I$use$fp
    feqf.o(x$fpl$feqf) refers to fnaninf.o(x$fpl$fnaninf) for __fpl_fnaninf
    feqf.o(x$fpl$feqf) refers to fcmpi.o(x$fpl$fcmpinf) for __fpl_fcmp_Inf
    fgeqf.o(x$fpl$fgeqf) refers (Special) to usenofp.o(x$fpl$usenofp) for __I$use$fp
    fgeqf.o(x$fpl$fgeqf) refers to fnaninf.o(x$fpl$fnaninf) for __fpl_fnaninf
    fgeqf.o(x$fpl$fgeqf) refers to fcmpi.o(x$fpl$fcmpinf) for __fpl_fcmp_Inf
    fleqf.o(x$fpl$fleqf) refers (Special) to usenofp.o(x$fpl$usenofp) for __I$use$fp
    fleqf.o(x$fpl$fleqf) refers to fnaninf.o(x$fpl$fnaninf) for __fpl_fnaninf
    fleqf.o(x$fpl$fleqf) refers to fcmpi.o(x$fpl$fcmpinf) for __fpl_fcmp_Inf
    fnaninf.o(x$fpl$fnaninf) refers (Special) to usenofp.o(x$fpl$usenofp) for __I$use$fp
    fretinf.o(x$fpl$fretinf) refers (Special) to usenofp.o(x$fpl$usenofp) for __I$use$fp
    __rtentry2.o(.ARM.Collect$$rtentry$$00000008) refers to boardinit2.o(.text) for _platform_post_stackheap_init
    __rtentry2.o(.ARM.Collect$$rtentry$$0000000A) refers to libinit.o(.ARM.Collect$$libinit$$00000000) for __rt_lib_init
    __rtentry2.o(.ARM.Collect$$rtentry$$0000000B) refers to boardinit3.o(.text) for _platform_post_lib_init
    __rtentry2.o(.ARM.Collect$$rtentry$$0000000D) refers to main.o(.text) for main
    __rtentry2.o(.ARM.Collect$$rtentry$$0000000D) refers to exit.o(.text) for exit
    __rtentry2.o(.ARM.exidx) refers to __rtentry2.o(.ARM.Collect$$rtentry$$00000001) for .ARM.Collect$$rtentry$$00000001
    __rtentry2.o(.ARM.exidx) refers to __rtentry2.o(.ARM.Collect$$rtentry$$00000008) for .ARM.Collect$$rtentry$$00000008
    __rtentry2.o(.ARM.exidx) refers to __rtentry2.o(.ARM.Collect$$rtentry$$0000000A) for .ARM.Collect$$rtentry$$0000000A
    __rtentry2.o(.ARM.exidx) refers to __rtentry2.o(.ARM.Collect$$rtentry$$0000000B) for .ARM.Collect$$rtentry$$0000000B
    __rtentry2.o(.ARM.exidx) refers to __rtentry2.o(.ARM.Collect$$rtentry$$0000000D) for .ARM.Collect$$rtentry$$0000000D
    __rtentry4.o(.ARM.Collect$$rtentry$$00000004) refers to sys_stackheap_outer.o(.text) for __user_setup_stackheap
    __rtentry4.o(.ARM.exidx) refers to __rtentry4.o(.ARM.Collect$$rtentry$$00000004) for .ARM.Collect$$rtentry$$00000004
    dcmpi.o(x$fpl$dcmpinf) refers (Special) to usenofp.o(x$fpl$usenofp) for __I$use$fp
    fcmpi.o(x$fpl$fcmpinf) refers (Special) to usenofp.o(x$fpl$usenofp) for __I$use$fp
    sys_stackheap_outer.o(.text) refers to libspace.o(.text) for __user_perproc_libspace
    sys_stackheap_outer.o(.text) refers to startup_gd32f1x0.o(.text) for __user_initial_stackheap
    exit.o(.text) refers to rtexit.o(.ARM.Collect$$rtexit$$00000000) for __rt_exit
    libinit.o(.ARM.Collect$$libinit$$00000000) refers (Special) to libinit2.o(.ARM.Collect$$libinit$$00000030) for __rt_lib_init_alloca_1
    libinit.o(.ARM.Collect$$libinit$$00000000) refers (Special) to libinit2.o(.ARM.Collect$$libinit$$0000002E) for __rt_lib_init_argv_1
    libinit.o(.ARM.Collect$$libinit$$00000000) refers (Special) to libinit2.o(.ARM.Collect$$libinit$$0000001D) for __rt_lib_init_atexit_1
    libinit.o(.ARM.Collect$$libinit$$00000000) refers (Special) to libinit2.o(.ARM.Collect$$libinit$$00000023) for __rt_lib_init_clock_1
    libinit.o(.ARM.Collect$$libinit$$00000000) refers (Special) to libinit2.o(.ARM.Collect$$libinit$$00000034) for __rt_lib_init_cpp_1
    libinit.o(.ARM.Collect$$libinit$$00000000) refers (Special) to libinit2.o(.ARM.Collect$$libinit$$00000032) for __rt_lib_init_exceptions_1
    libinit.o(.ARM.Collect$$libinit$$00000000) refers (Special) to libinit2.o(.ARM.Collect$$libinit$$00000002) for __rt_lib_init_fp_1
    libinit.o(.ARM.Collect$$libinit$$00000000) refers (Special) to libinit2.o(.ARM.Collect$$libinit$$00000021) for __rt_lib_init_fp_trap_1
    libinit.o(.ARM.Collect$$libinit$$00000000) refers (Special) to libinit2.o(.ARM.Collect$$libinit$$00000025) for __rt_lib_init_getenv_1
    libinit.o(.ARM.Collect$$libinit$$00000000) refers (Special) to libinit2.o(.ARM.Collect$$libinit$$0000000C) for __rt_lib_init_heap_1
    libinit.o(.ARM.Collect$$libinit$$00000000) refers (Special) to libinit2.o(.ARM.Collect$$libinit$$00000013) for __rt_lib_init_lc_collate_1
    libinit.o(.ARM.Collect$$libinit$$00000000) refers (Special) to libinit2.o(.ARM.Collect$$libinit$$00000015) for __rt_lib_init_lc_ctype_1
    libinit.o(.ARM.Collect$$libinit$$00000000) refers (Special) to libinit2.o(.ARM.Collect$$libinit$$00000017) for __rt_lib_init_lc_monetary_1
    libinit.o(.ARM.Collect$$libinit$$00000000) refers (Special) to libinit2.o(.ARM.Collect$$libinit$$00000019) for __rt_lib_init_lc_numeric_1
    libinit.o(.ARM.Collect$$libinit$$00000000) refers (Special) to libinit2.o(.ARM.Collect$$libinit$$0000001B) for __rt_lib_init_lc_time_1
    libinit.o(.ARM.Collect$$libinit$$00000000) refers (Special) to libinit2.o(.ARM.Collect$$libinit$$00000006) for __rt_lib_init_preinit_1
    libinit.o(.ARM.Collect$$libinit$$00000000) refers (Special) to libinit2.o(.ARM.Collect$$libinit$$00000010) for __rt_lib_init_rand_1
    libinit.o(.ARM.Collect$$libinit$$00000000) refers (Special) to libinit2.o(.ARM.Collect$$libinit$$00000004) for __rt_lib_init_relocate_pie_1
    libinit.o(.ARM.Collect$$libinit$$00000000) refers (Special) to libinit2.o(.ARM.Collect$$libinit$$00000035) for __rt_lib_init_return
    libinit.o(.ARM.Collect$$libinit$$00000000) refers (Special) to libinit2.o(.ARM.Collect$$libinit$$0000001F) for __rt_lib_init_signal_1
    libinit.o(.ARM.Collect$$libinit$$00000000) refers (Special) to libinit2.o(.ARM.Collect$$libinit$$00000027) for __rt_lib_init_stdio_1
    libinit.o(.ARM.Collect$$libinit$$00000000) refers (Special) to libinit2.o(.ARM.Collect$$libinit$$0000000E) for __rt_lib_init_user_alloc_1
    libspace.o(.text) refers to libspace.o(.bss) for __libspace_start
    rtexit.o(.ARM.Collect$$rtexit$$00000000) refers (Special) to rtexit2.o(.ARM.Collect$$rtexit$$00000004) for __rt_exit_exit
    rtexit.o(.ARM.Collect$$rtexit$$00000000) refers (Special) to rtexit2.o(.ARM.Collect$$rtexit$$00000003) for __rt_exit_ls
    rtexit.o(.ARM.Collect$$rtexit$$00000000) refers (Special) to rtexit2.o(.ARM.Collect$$rtexit$$00000002) for __rt_exit_prels_1
    rtexit.o(.ARM.exidx) refers (Special) to rtexit2.o(.ARM.Collect$$rtexit$$00000004) for __rt_exit_exit
    rtexit.o(.ARM.exidx) refers (Special) to rtexit2.o(.ARM.Collect$$rtexit$$00000003) for __rt_exit_ls
    rtexit.o(.ARM.exidx) refers (Special) to rtexit2.o(.ARM.Collect$$rtexit$$00000002) for __rt_exit_prels_1
    rtexit.o(.ARM.exidx) refers to rtexit.o(.ARM.Collect$$rtexit$$00000000) for .ARM.Collect$$rtexit$$00000000
    libinit2.o(.ARM.Collect$$libinit$$00000012) refers to libinit2.o(.ARM.Collect$$libinit$$00000011) for .ARM.Collect$$libinit$$00000011
    libinit2.o(.ARM.Collect$$libinit$$00000014) refers to libinit2.o(.ARM.Collect$$libinit$$00000011) for .ARM.Collect$$libinit$$00000011
    libinit2.o(.ARM.Collect$$libinit$$00000016) refers to libinit2.o(.ARM.Collect$$libinit$$00000011) for .ARM.Collect$$libinit$$00000011
    libinit2.o(.ARM.Collect$$libinit$$00000018) refers to libinit2.o(.ARM.Collect$$libinit$$00000011) for .ARM.Collect$$libinit$$00000011
    libinit2.o(.ARM.Collect$$libinit$$0000001A) refers to libinit2.o(.ARM.Collect$$libinit$$00000011) for .ARM.Collect$$libinit$$00000011
    libinit2.o(.ARM.Collect$$libinit$$00000028) refers to argv_veneer.o(.emb_text) for __ARM_argv_veneer
    libinit2.o(.ARM.Collect$$libinit$$00000029) refers to argv_veneer.o(.emb_text) for __ARM_argv_veneer
    rtexit2.o(.ARM.Collect$$rtexit$$00000003) refers to libshutdown.o(.ARM.Collect$$libshutdown$$00000000) for __rt_lib_shutdown
    rtexit2.o(.ARM.Collect$$rtexit$$00000004) refers to sys_exit.o(.text) for _sys_exit
    rtexit2.o(.ARM.exidx) refers to rtexit2.o(.ARM.Collect$$rtexit$$00000001) for .ARM.Collect$$rtexit$$00000001
    rtexit2.o(.ARM.exidx) refers to rtexit2.o(.ARM.Collect$$rtexit$$00000003) for .ARM.Collect$$rtexit$$00000003
    rtexit2.o(.ARM.exidx) refers to rtexit2.o(.ARM.Collect$$rtexit$$00000004) for .ARM.Collect$$rtexit$$00000004
    argv_veneer.o(.emb_text) refers to no_argv.o(.text) for __ARM_get_argv
    sys_exit.o(.text) refers (Special) to use_no_semi.o(.text) for __I$use$semihosting
    sys_exit.o(.text) refers (Special) to indicate_semi.o(.text) for __semihosting_library_function
    sys_exit_hlt.o(.text) refers (Special) to use_no_semi.o(.text) for __I$use$semihosting
    sys_exit_hlt.o(.text) refers (Special) to indicate_semi.o(.text) for __semihosting_library_function
    _get_argv_nomalloc.o(.text) refers (Special) to hrguard.o(.text) for __heap_region$guard
    _get_argv_nomalloc.o(.text) refers to defsig_rtmem_outer.o(.text) for __rt_SIGRTMEM
    _get_argv_nomalloc.o(.text) refers to sys_command.o(.text) for _sys_command_string
    libshutdown.o(.ARM.Collect$$libshutdown$$00000000) refers (Special) to libshutdown2.o(.ARM.Collect$$libshutdown$$00000002) for __rt_lib_shutdown_cpp_1
    libshutdown.o(.ARM.Collect$$libshutdown$$00000000) refers (Special) to libshutdown2.o(.ARM.Collect$$libshutdown$$00000007) for __rt_lib_shutdown_fp_trap_1
    libshutdown.o(.ARM.Collect$$libshutdown$$00000000) refers (Special) to libshutdown2.o(.ARM.Collect$$libshutdown$$0000000F) for __rt_lib_shutdown_heap_1
    libshutdown.o(.ARM.Collect$$libshutdown$$00000000) refers (Special) to libshutdown2.o(.ARM.Collect$$libshutdown$$00000010) for __rt_lib_shutdown_return
    libshutdown.o(.ARM.Collect$$libshutdown$$00000000) refers (Special) to libshutdown2.o(.ARM.Collect$$libshutdown$$0000000A) for __rt_lib_shutdown_signal_1
    libshutdown.o(.ARM.Collect$$libshutdown$$00000000) refers (Special) to libshutdown2.o(.ARM.Collect$$libshutdown$$00000004) for __rt_lib_shutdown_stdio_1
    libshutdown.o(.ARM.Collect$$libshutdown$$00000000) refers (Special) to libshutdown2.o(.ARM.Collect$$libshutdown$$0000000C) for __rt_lib_shutdown_user_alloc_1
    sys_command.o(.text) refers (Special) to use_no_semi.o(.text) for __I$use$semihosting
    sys_command.o(.text) refers (Special) to indicate_semi.o(.text) for __semihosting_library_function
    sys_command_hlt.o(.text) refers (Special) to use_no_semi.o(.text) for __I$use$semihosting
    sys_command_hlt.o(.text) refers (Special) to indicate_semi.o(.text) for __semihosting_library_function
    defsig_rtmem_outer.o(.text) refers to defsig_rtmem_inner.o(.text) for __rt_SIGRTMEM_inner
    defsig_rtmem_outer.o(.text) refers to defsig_exit.o(.text) for __sig_exit
    defsig_rtmem_formal.o(.text) refers to rt_raise.o(.text) for __rt_raise
    rt_raise.o(.text) refers to __raise.o(.text) for __raise
    rt_raise.o(.text) refers to sys_exit.o(.text) for _sys_exit
    defsig_exit.o(.text) refers to sys_exit.o(.text) for _sys_exit
    defsig_rtmem_inner.o(.text) refers to defsig_general.o(.text) for __default_signal_display
    __raise.o(.text) refers to defsig.o(CL$$defsig) for __default_signal_handler
    defsig_general.o(.text) refers to sys_wrch.o(.text) for _ttywrch
    sys_wrch.o(.text) refers (Special) to use_no_semi.o(.text) for __I$use$semihosting
    sys_wrch.o(.text) refers (Special) to indicate_semi.o(.text) for __semihosting_library_function
    sys_wrch_hlt.o(.text) refers (Special) to use_no_semi.o(.text) for __I$use$semihosting
    sys_wrch_hlt.o(.text) refers (Special) to indicate_semi.o(.text) for __semihosting_library_function
    defsig.o(CL$$defsig) refers to defsig_rtmem_inner.o(.text) for __rt_SIGRTMEM_inner
    defsig_abrt_inner.o(.text) refers to defsig_general.o(.text) for __default_signal_display
    defsig_fpe_inner.o(.text) refers to defsig_general.o(.text) for __default_signal_display
    defsig_rtred_inner.o(.text) refers to defsig_general.o(.text) for __default_signal_display
    defsig_stak_inner.o(.text) refers to defsig_general.o(.text) for __default_signal_display
    defsig_pvfn_inner.o(.text) refers to defsig_general.o(.text) for __default_signal_display
    defsig_cppl_inner.o(.text) refers to defsig_general.o(.text) for __default_signal_display
    defsig_segv_inner.o(.text) refers to defsig_general.o(.text) for __default_signal_display
    defsig_other.o(.text) refers to defsig_general.o(.text) for __default_signal_display


==============================================================================

Removing Unused input sections from the image.

    Removing main.o(.ARM.exidx), (32 bytes).
    Removing main.o(.bss.activateWeakening), (1 bytes).
    Removing main.o(.bss.slaveError), (1 bytes).
    Removing main.o(.ARM.use_no_argv), (4 bytes).
    Removing bldc.o(.ARM.exidx), (32 bytes).
    Removing bldc.o(.rodata.pwm_res), (2 bytes).
    Removing setup.o(.ARM.exidx), (64 bytes).
    Removing it.o(.ARM.exidx), (136 bytes).
    Removing comms.o(.ARM.exidx), (16 bytes).
    Removing commsbluetooth.o(.text), (0 bytes).
    Removing commssteering.o(.ARM.exidx), (16 bytes).
    Removing commsmasterslave.o(.ARM.exidx), (24 bytes).
    Removing led.o(.text), (0 bytes).
    Removing gd32f1x0_adc.o(.ARM.exidx), (256 bytes).
    Removing gd32f1x0_dbg.o(.text), (128 bytes).
    Removing gd32f1x0_dbg.o(.ARM.exidx), (48 bytes).
    Removing gd32f1x0_dma.o(.ARM.exidx), (216 bytes).
    Removing gd32f1x0_fwdgt.o(.ARM.exidx), (48 bytes).
    Removing gd32f1x0_gpio.o(.ARM.exidx), (104 bytes).
    Removing gd32f1x0_i2c.o(.text), (810 bytes).
    Removing gd32f1x0_i2c.o(.ARM.exidx), (248 bytes).
    Removing gd32f1x0_misc.o(.ARM.exidx), (56 bytes).
    Removing gd32f1x0_opa.o(.text), (0 bytes).
    Removing gd32f1x0_pmu.o(.text), (490 bytes).
    Removing gd32f1x0_pmu.o(.ARM.exidx), (96 bytes).
    Removing gd32f1x0_pmu.o(.bss.pmu_to_deepsleepmode.reg_snap.0), (4 bytes).
    Removing gd32f1x0_pmu.o(.bss.pmu_to_deepsleepmode.reg_snap.1), (4 bytes).
    Removing gd32f1x0_pmu.o(.bss.pmu_to_deepsleepmode.reg_snap.2), (4 bytes).
    Removing gd32f1x0_pmu.o(.bss.pmu_to_deepsleepmode.reg_snap.3), (4 bytes).
    Removing gd32f1x0_rcu.o(.ARM.exidx), (336 bytes).
    Removing gd32f1x0_syscfg.o(.text), (254 bytes).
    Removing gd32f1x0_syscfg.o(.ARM.exidx), (72 bytes).
    Removing gd32f1x0_timer.o(.ARM.exidx), (568 bytes).
    Removing gd32f1x0_usart.o(.ARM.exidx), (544 bytes).
    Removing gd32f1x0_wwdgt.o(.text), (170 bytes).
    Removing gd32f1x0_wwdgt.o(.ARM.exidx), (56 bytes).
    Removing system_gd32f1x0.o(.ARM.exidx), (16 bytes).

37 unused section(s) (total 4860 bytes) removed from the image.

==============================================================================

Image Symbol Table

    Local Symbols

    Symbol Name                              Value     Ov Type        Size  Object(Section)

    ../clib/angel/boardlib.s                 0x00000000   Number         0  boardinit1.o ABSOLUTE
    ../clib/angel/boardlib.s                 0x00000000   Number         0  boardinit2.o ABSOLUTE
    ../clib/angel/boardlib.s                 0x00000000   Number         0  boardinit3.o ABSOLUTE
    ../clib/angel/boardlib.s                 0x00000000   Number         0  boardshut.o ABSOLUTE
    ../clib/angel/handlers.s                 0x00000000   Number         0  __scatter_copy.o ABSOLUTE
    ../clib/angel/handlers.s                 0x00000000   Number         0  __scatter_zi.o ABSOLUTE
    ../clib/angel/kernel.s                   0x00000000   Number         0  __rtentry.o ABSOLUTE
    ../clib/angel/kernel.s                   0x00000000   Number         0  __rtentry2.o ABSOLUTE
    ../clib/angel/kernel.s                   0x00000000   Number         0  __rtentry4.o ABSOLUTE
    ../clib/angel/kernel.s                   0x00000000   Number         0  rtexit.o ABSOLUTE
    ../clib/angel/kernel.s                   0x00000000   Number         0  rtexit2.o ABSOLUTE
    ../clib/angel/rt.s                       0x00000000   Number         0  rt_raise.o ABSOLUTE
    ../clib/angel/scatter.s                  0x00000000   Number         0  __scatter.o ABSOLUTE
    ../clib/angel/startup.s                  0x00000000   Number         0  __main.o ABSOLUTE
    ../clib/angel/sys.s                      0x00000000   Number         0  sys_stackheap_outer.o ABSOLUTE
    ../clib/angel/sys.s                      0x00000000   Number         0  libspace.o ABSOLUTE
    ../clib/angel/sys.s                      0x00000000   Number         0  use_no_semi.o ABSOLUTE
    ../clib/angel/sys.s                      0x00000000   Number         0  indicate_semi.o ABSOLUTE
    ../clib/angel/sysapp.c                   0x00000000   Number         0  sys_exit.o ABSOLUTE
    ../clib/angel/sysapp.c                   0x00000000   Number         0  sys_exit_hlt.o ABSOLUTE
    ../clib/angel/sysapp.c                   0x00000000   Number         0  sys_command.o ABSOLUTE
    ../clib/angel/sysapp.c                   0x00000000   Number         0  sys_command_hlt.o ABSOLUTE
    ../clib/angel/sysapp.c                   0x00000000   Number         0  sys_wrch.o ABSOLUTE
    ../clib/angel/sysapp.c                   0x00000000   Number         0  sys_wrch_hlt.o ABSOLUTE
    ../clib/armsys.c                         0x00000000   Number         0  argv_veneer.o ABSOLUTE
    ../clib/armsys.c                         0x00000000   Number         0  argv_veneer.o ABSOLUTE
    ../clib/armsys.c                         0x00000000   Number         0  _get_argv_nomalloc.o ABSOLUTE
    ../clib/armsys.c                         0x00000000   Number         0  no_argv.o ABSOLUTE
    ../clib/heapalloc.c                      0x00000000   Number         0  hrguard.o ABSOLUTE
    ../clib/heapaux.c                        0x00000000   Number         0  heapauxi.o ABSOLUTE
    ../clib/libinit.s                        0x00000000   Number         0  libinit.o ABSOLUTE
    ../clib/libinit.s                        0x00000000   Number         0  libinit2.o ABSOLUTE
    ../clib/libinit.s                        0x00000000   Number         0  libshutdown.o ABSOLUTE
    ../clib/libinit.s                        0x00000000   Number         0  libshutdown2.o ABSOLUTE
    ../clib/signal.c                         0x00000000   Number         0  defsig_rtmem_outer.o ABSOLUTE
    ../clib/signal.c                         0x00000000   Number         0  defsig_rtmem_formal.o ABSOLUTE
    ../clib/signal.c                         0x00000000   Number         0  defsig_exit.o ABSOLUTE
    ../clib/signal.c                         0x00000000   Number         0  defsig_rtmem_inner.o ABSOLUTE
    ../clib/signal.c                         0x00000000   Number         0  __raise.o ABSOLUTE
    ../clib/signal.c                         0x00000000   Number         0  defsig_general.o ABSOLUTE
    ../clib/signal.c                         0x00000000   Number         0  defsig_abrt_inner.o ABSOLUTE
    ../clib/signal.c                         0x00000000   Number         0  defsig_fpe_inner.o ABSOLUTE
    ../clib/signal.c                         0x00000000   Number         0  defsig_rtred_inner.o ABSOLUTE
    ../clib/signal.c                         0x00000000   Number         0  defsig_stak_inner.o ABSOLUTE
    ../clib/signal.c                         0x00000000   Number         0  defsig_pvfn_inner.o ABSOLUTE
    ../clib/signal.c                         0x00000000   Number         0  defsig_cppl_inner.o ABSOLUTE
    ../clib/signal.c                         0x00000000   Number         0  defsig_segv_inner.o ABSOLUTE
    ../clib/signal.c                         0x00000000   Number         0  defsig_other.o ABSOLUTE
    ../clib/signal.s                         0x00000000   Number         0  defsig.o ABSOLUTE
    ../clib/stdlib.c                         0x00000000   Number         0  exit.o ABSOLUTE
    ../fplib/d2f.s                           0x00000000   Number         0  d2f.o ABSOLUTE
    ../fplib/daddsub.s                       0x00000000   Number         0  daddsub_clz.o ABSOLUTE
    ../fplib/dcmp.s                          0x00000000   Number         0  dcmp.o ABSOLUTE
    ../fplib/dcmpi.s                         0x00000000   Number         0  dcmpi.o ABSOLUTE
    ../fplib/ddiv.s                          0x00000000   Number         0  ddiv.o ABSOLUTE
    ../fplib/deqf.s                          0x00000000   Number         0  deqf.o ABSOLUTE
    ../fplib/dflt.s                          0x00000000   Number         0  dflt_clz.o ABSOLUTE
    ../fplib/dgeqf.s                         0x00000000   Number         0  dgeqf.o ABSOLUTE
    ../fplib/dleqf.s                         0x00000000   Number         0  dleqf.o ABSOLUTE
    ../fplib/dmul.s                          0x00000000   Number         0  dmul.o ABSOLUTE
    ../fplib/dnaninf.s                       0x00000000   Number         0  dnaninf.o ABSOLUTE
    ../fplib/dretinf.s                       0x00000000   Number         0  dretinf.o ABSOLUTE
    ../fplib/f2d.s                           0x00000000   Number         0  f2d.o ABSOLUTE
    ../fplib/faddsub.s                       0x00000000   Number         0  faddsub_clz.o ABSOLUTE
    ../fplib/fcmp.s                          0x00000000   Number         0  fcmp.o ABSOLUTE
    ../fplib/fcmpi.s                         0x00000000   Number         0  fcmpi.o ABSOLUTE
    ../fplib/fdiv.s                          0x00000000   Number         0  fdiv.o ABSOLUTE
    ../fplib/feqf.s                          0x00000000   Number         0  feqf.o ABSOLUTE
    ../fplib/ffix.s                          0x00000000   Number         0  ffix.o ABSOLUTE
    ../fplib/fflt.s                          0x00000000   Number         0  fflt_clz.o ABSOLUTE
    ../fplib/fgeqf.s                         0x00000000   Number         0  fgeqf.o ABSOLUTE
    ../fplib/fleqf.s                         0x00000000   Number         0  fleqf.o ABSOLUTE
    ../fplib/fmul.s                          0x00000000   Number         0  fmul.o ABSOLUTE
    ../fplib/fnaninf.s                       0x00000000   Number         0  fnaninf.o ABSOLUTE
    ../fplib/fpinit.s                        0x00000000   Number         0  fpinit.o ABSOLUTE
    ../fplib/fpinit_empty.s                  0x00000000   Number         0  fpinit_empty.o ABSOLUTE
    ../fplib/fretinf.s                       0x00000000   Number         0  fretinf.o ABSOLUTE
    ../fplib/usenofp.s                       0x00000000   Number         0  usenofp.o ABSOLUTE
    RTE/Device/GD32F130C8/startup_gd32f1x0.s 0x00000000   Number         0  startup_gd32f1x0.o ABSOLUTE
    bldc.c                                   0x00000000   Number         0  bldc.o ABSOLUTE
    comms.c                                  0x00000000   Number         0  comms.o ABSOLUTE
    commsBluetooth.c                         0x00000000   Number         0  commsbluetooth.o ABSOLUTE
    commsMasterSlave.c                       0x00000000   Number         0  commsmasterslave.o ABSOLUTE
    commsSteering.c                          0x00000000   Number         0  commssteering.o ABSOLUTE
    dc.s                                     0x00000000   Number         0  dc.o ABSOLUTE
    gd32f1x0_adc.c                           0x00000000   Number         0  gd32f1x0_adc.o ABSOLUTE
    gd32f1x0_dbg.c                           0x00000000   Number         0  gd32f1x0_dbg.o ABSOLUTE
    gd32f1x0_dma.c                           0x00000000   Number         0  gd32f1x0_dma.o ABSOLUTE
    gd32f1x0_fwdgt.c                         0x00000000   Number         0  gd32f1x0_fwdgt.o ABSOLUTE
    gd32f1x0_gpio.c                          0x00000000   Number         0  gd32f1x0_gpio.o ABSOLUTE
    gd32f1x0_i2c.c                           0x00000000   Number         0  gd32f1x0_i2c.o ABSOLUTE
    gd32f1x0_misc.c                          0x00000000   Number         0  gd32f1x0_misc.o ABSOLUTE
    gd32f1x0_opa.c                           0x00000000   Number         0  gd32f1x0_opa.o ABSOLUTE
    gd32f1x0_pmu.c                           0x00000000   Number         0  gd32f1x0_pmu.o ABSOLUTE
    gd32f1x0_rcu.c                           0x00000000   Number         0  gd32f1x0_rcu.o ABSOLUTE
    gd32f1x0_syscfg.c                        0x00000000   Number         0  gd32f1x0_syscfg.o ABSOLUTE
    gd32f1x0_timer.c                         0x00000000   Number         0  gd32f1x0_timer.o ABSOLUTE
    gd32f1x0_usart.c                         0x00000000   Number         0  gd32f1x0_usart.o ABSOLUTE
    gd32f1x0_wwdgt.c                         0x00000000   Number         0  gd32f1x0_wwdgt.o ABSOLUTE
    it.c                                     0x00000000   Number         0  it.o ABSOLUTE
    led.c                                    0x00000000   Number         0  led.o ABSOLUTE
    main.c                                   0x00000000   Number         0  main.o ABSOLUTE
    setup.c                                  0x00000000   Number         0  setup.o ABSOLUTE
    system_gd32f1x0.c                        0x00000000   Number         0  system_gd32f1x0.o ABSOLUTE
    RESET                                    0x08000000   Section      360  startup_gd32f1x0.o(RESET)
    !!!main                                  0x08000168   Section        8  __main.o(!!!main)
    !!!scatter                               0x08000170   Section       52  __scatter.o(!!!scatter)
    !!handler_copy                           0x080001a4   Section       26  __scatter_copy.o(!!handler_copy)
    !!handler_zi                             0x080001c0   Section       28  __scatter_zi.o(!!handler_zi)
    .ARM.Collect$$libinit$$00000000          0x080001dc   Section        2  libinit.o(.ARM.Collect$$libinit$$00000000)
    .ARM.Collect$$libinit$$00000002          0x080001de   Section        0  libinit2.o(.ARM.Collect$$libinit$$00000002)
    .ARM.Collect$$libinit$$00000004          0x080001de   Section        0  libinit2.o(.ARM.Collect$$libinit$$00000004)
    .ARM.Collect$$libinit$$00000006          0x080001de   Section        0  libinit2.o(.ARM.Collect$$libinit$$00000006)
    .ARM.Collect$$libinit$$0000000C          0x080001de   Section        0  libinit2.o(.ARM.Collect$$libinit$$0000000C)
    .ARM.Collect$$libinit$$0000000E          0x080001de   Section        0  libinit2.o(.ARM.Collect$$libinit$$0000000E)
    .ARM.Collect$$libinit$$00000010          0x080001de   Section        0  libinit2.o(.ARM.Collect$$libinit$$00000010)
    .ARM.Collect$$libinit$$00000013          0x080001de   Section        0  libinit2.o(.ARM.Collect$$libinit$$00000013)
    .ARM.Collect$$libinit$$00000015          0x080001de   Section        0  libinit2.o(.ARM.Collect$$libinit$$00000015)
    .ARM.Collect$$libinit$$00000017          0x080001de   Section        0  libinit2.o(.ARM.Collect$$libinit$$00000017)
    .ARM.Collect$$libinit$$00000019          0x080001de   Section        0  libinit2.o(.ARM.Collect$$libinit$$00000019)
    .ARM.Collect$$libinit$$0000001B          0x080001de   Section        0  libinit2.o(.ARM.Collect$$libinit$$0000001B)
    .ARM.Collect$$libinit$$0000001D          0x080001de   Section        0  libinit2.o(.ARM.Collect$$libinit$$0000001D)
    .ARM.Collect$$libinit$$0000001F          0x080001de   Section        0  libinit2.o(.ARM.Collect$$libinit$$0000001F)
    .ARM.Collect$$libinit$$00000021          0x080001de   Section        0  libinit2.o(.ARM.Collect$$libinit$$00000021)
    .ARM.Collect$$libinit$$00000023          0x080001de   Section        0  libinit2.o(.ARM.Collect$$libinit$$00000023)
    .ARM.Collect$$libinit$$00000025          0x080001de   Section        0  libinit2.o(.ARM.Collect$$libinit$$00000025)
    .ARM.Collect$$libinit$$00000027          0x080001de   Section        0  libinit2.o(.ARM.Collect$$libinit$$00000027)
    .ARM.Collect$$libinit$$0000002E          0x080001de   Section        0  libinit2.o(.ARM.Collect$$libinit$$0000002E)
    .ARM.Collect$$libinit$$00000030          0x080001de   Section        0  libinit2.o(.ARM.Collect$$libinit$$00000030)
    .ARM.Collect$$libinit$$00000032          0x080001de   Section        0  libinit2.o(.ARM.Collect$$libinit$$00000032)
    .ARM.Collect$$libinit$$00000034          0x080001de   Section        0  libinit2.o(.ARM.Collect$$libinit$$00000034)
    .ARM.Collect$$libinit$$00000035          0x080001de   Section        2  libinit2.o(.ARM.Collect$$libinit$$00000035)
    .ARM.Collect$$libshutdown$$00000000      0x080001e0   Section        2  libshutdown.o(.ARM.Collect$$libshutdown$$00000000)
    .ARM.Collect$$libshutdown$$00000002      0x080001e2   Section        0  libshutdown2.o(.ARM.Collect$$libshutdown$$00000002)
    .ARM.Collect$$libshutdown$$00000004      0x080001e2   Section        0  libshutdown2.o(.ARM.Collect$$libshutdown$$00000004)
    .ARM.Collect$$libshutdown$$00000007      0x080001e2   Section        0  libshutdown2.o(.ARM.Collect$$libshutdown$$00000007)
    .ARM.Collect$$libshutdown$$0000000A      0x080001e2   Section        0  libshutdown2.o(.ARM.Collect$$libshutdown$$0000000A)
    .ARM.Collect$$libshutdown$$0000000C      0x080001e2   Section        0  libshutdown2.o(.ARM.Collect$$libshutdown$$0000000C)
    .ARM.Collect$$libshutdown$$0000000F      0x080001e2   Section        0  libshutdown2.o(.ARM.Collect$$libshutdown$$0000000F)
    .ARM.Collect$$libshutdown$$00000010      0x080001e2   Section        2  libshutdown2.o(.ARM.Collect$$libshutdown$$00000010)
    .ARM.Collect$$rtentry$$00000000          0x080001e4   Section        0  __rtentry.o(.ARM.Collect$$rtentry$$00000000)
    .ARM.Collect$$rtentry$$00000002          0x080001e4   Section        0  __rtentry2.o(.ARM.Collect$$rtentry$$00000002)
    .ARM.Collect$$rtentry$$00000004          0x080001e4   Section        6  __rtentry4.o(.ARM.Collect$$rtentry$$00000004)
    .ARM.Collect$$rtentry$$00000009          0x080001ea   Section        0  __rtentry2.o(.ARM.Collect$$rtentry$$00000009)
    .ARM.Collect$$rtentry$$0000000A          0x080001ea   Section        4  __rtentry2.o(.ARM.Collect$$rtentry$$0000000A)
    .ARM.Collect$$rtentry$$0000000C          0x080001ee   Section        0  __rtentry2.o(.ARM.Collect$$rtentry$$0000000C)
    .ARM.Collect$$rtentry$$0000000D          0x080001ee   Section        8  __rtentry2.o(.ARM.Collect$$rtentry$$0000000D)
    .ARM.Collect$$rtexit$$00000000           0x080001f6   Section        2  rtexit.o(.ARM.Collect$$rtexit$$00000000)
    .ARM.Collect$$rtexit$$00000002           0x080001f8   Section        0  rtexit2.o(.ARM.Collect$$rtexit$$00000002)
    .ARM.Collect$$rtexit$$00000003           0x080001f8   Section        4  rtexit2.o(.ARM.Collect$$rtexit$$00000003)
    .ARM.Collect$$rtexit$$00000004           0x080001fc   Section        6  rtexit2.o(.ARM.Collect$$rtexit$$00000004)
    [Anonymous Symbol]                       0x08000204   Section        0  main.o(.text)
    [Anonymous Symbol]                       0x080007d4   Section        0  bldc.o(.text)
    [Anonymous Symbol]                       0x08000bd0   Section        0  setup.o(.text)
    [Anonymous Symbol]                       0x08001378   Section        0  it.o(.text)
    [Anonymous Symbol]                       0x080014bc   Section        0  comms.o(.text)
    [Anonymous Symbol]                       0x08001528   Section        0  commssteering.o(.text)
    [Anonymous Symbol]                       0x0800164c   Section        0  commsmasterslave.o(.text)
    [Anonymous Symbol]                       0x080017d0   Section        0  gd32f1x0_adc.o(.text)
    [Anonymous Symbol]                       0x08001d78   Section        0  gd32f1x0_dma.o(.text)
    [Anonymous Symbol]                       0x080020c4   Section        0  gd32f1x0_fwdgt.o(.text)
    [Anonymous Symbol]                       0x080021a0   Section        0  gd32f1x0_gpio.o(.text)
    [Anonymous Symbol]                       0x08002338   Section        0  gd32f1x0_misc.o(.text)
    [Anonymous Symbol]                       0x08002468   Section        0  gd32f1x0_rcu.o(.text)
    [Anonymous Symbol]                       0x08002b98   Section        0  gd32f1x0_timer.o(.text)
    [Anonymous Symbol]                       0x080038f8   Section        0  gd32f1x0_usart.o(.text)
    .text                                    0x08003f38   Section       64  startup_gd32f1x0.o(.text)
    [Anonymous Symbol]                       0x08003f78   Section        0  system_gd32f1x0.o(.text)
    .text                                    0x080040b4   Section        0  heapauxi.o(.text)
    .text                                    0x080040ba   Section       74  sys_stackheap_outer.o(.text)
    .text                                    0x08004104   Section        0  exit.o(.text)
    .text                                    0x08004118   Section        8  libspace.o(.text)
    .text                                    0x08004120   Section        0  sys_exit.o(.text)
    .text                                    0x0800412c   Section        2  use_no_semi.o(.text)
    .text                                    0x0800412e   Section        0  indicate_semi.o(.text)
    x$fpl$d2f                                0x08004130   Section       98  d2f.o(x$fpl$d2f)
    x$fpl$dadd                               0x08004194   Section      336  daddsub_clz.o(x$fpl$dadd)
    _dadd1                                   0x080041a5   Thumb Code     0  daddsub_clz.o(x$fpl$dadd)
    x$fpl$dcmpinf                            0x080042e4   Section       24  dcmpi.o(x$fpl$dcmpinf)
    x$fpl$ddiv                               0x080042fc   Section      692  ddiv.o(x$fpl$ddiv)
    ddiv_entry                               0x08004303   Thumb Code     0  ddiv.o(x$fpl$ddiv)
    x$fpl$deqf                               0x080045b0   Section      120  deqf.o(x$fpl$deqf)
    x$fpl$dflt                               0x08004628   Section       46  dflt_clz.o(x$fpl$dflt)
    x$fpl$dfltu                              0x08004656   Section       38  dflt_clz.o(x$fpl$dfltu)
    x$fpl$dgeqf                              0x0800467c   Section      120  dgeqf.o(x$fpl$dgeqf)
    x$fpl$dleqf                              0x080046f4   Section      120  dleqf.o(x$fpl$dleqf)
    x$fpl$dmul                               0x0800476c   Section      340  dmul.o(x$fpl$dmul)
    x$fpl$dnaninf                            0x080048c0   Section      156  dnaninf.o(x$fpl$dnaninf)
    x$fpl$dretinf                            0x0800495c   Section       12  dretinf.o(x$fpl$dretinf)
    x$fpl$dsub                               0x08004968   Section      476  daddsub_clz.o(x$fpl$dsub)
    _dsub1                                   0x08004979   Thumb Code     0  daddsub_clz.o(x$fpl$dsub)
    x$fpl$f2d                                0x08004b44   Section       86  f2d.o(x$fpl$f2d)
    x$fpl$fadd                               0x08004b9c   Section      196  faddsub_clz.o(x$fpl$fadd)
    _fadd1                                   0x08004bab   Thumb Code     0  faddsub_clz.o(x$fpl$fadd)
    x$fpl$fcmp                               0x08004c60   Section       84  dcmp.o(x$fpl$fcmp)
    x$fpl$fcmp                               0x08004cb4   Section       84  fcmp.o(x$fpl$fcmp)
    x$fpl$fcmpinf                            0x08004d08   Section       24  fcmpi.o(x$fpl$fcmpinf)
    _fdiv1                                   0x08004d21   Thumb Code     0  fdiv.o(x$fpl$fdiv)
    x$fpl$fdiv                               0x08004d20   Section      388  fdiv.o(x$fpl$fdiv)
    x$fpl$feqf                               0x08004ea4   Section      104  feqf.o(x$fpl$feqf)
    x$fpl$ffix                               0x08004f0c   Section       54  ffix.o(x$fpl$ffix)
    x$fpl$fflt                               0x08004f44   Section       48  fflt_clz.o(x$fpl$fflt)
    x$fpl$ffltu                              0x08004f74   Section       38  fflt_clz.o(x$fpl$ffltu)
    x$fpl$fgeqf                              0x08004f9c   Section      104  fgeqf.o(x$fpl$fgeqf)
    x$fpl$fleqf                              0x08005004   Section      104  fleqf.o(x$fpl$fleqf)
    x$fpl$fmul                               0x0800506c   Section      258  fmul.o(x$fpl$fmul)
    x$fpl$fnaninf                            0x0800516e   Section      140  fnaninf.o(x$fpl$fnaninf)
    x$fpl$fretinf                            0x080051fa   Section       10  fretinf.o(x$fpl$fretinf)
    x$fpl$fsub                               0x08005204   Section      234  faddsub_clz.o(x$fpl$fsub)
    _fsub1                                   0x08005213   Thumb Code     0  faddsub_clz.o(x$fpl$fsub)
    .Lswitch.table.gpio_deinit.1             0x080052ee   Data          12  gd32f1x0_gpio.o(.rodata..Lswitch.table.gpio_deinit.1)
    x$fpl$usenofp                            0x080052ee   Section        0  usenofp.o(x$fpl$usenofp)
    .L__const.rcu_clock_freq_get.apb2_exp    0x080052fa   Data           8  gd32f1x0_rcu.o(.rodata.cst8)
    iReceivePos                              0x2000000a   Data           2  commssteering.o(.data.iReceivePos)
    iReceivePos                              0x2000000c   Data           2  commsmasterslave.o(.data.iReceivePos)
    .bss                                     0x20000018   Section       96  libspace.o(.bss)
    aReceiveBuffer                           0x20000078   Data           7  commssteering.o(.bss.aReceiveBuffer)
    aReceiveBuffer                           0x2000007f   Data          12  commsmasterslave.o(.bss.aReceiveBuffer)
    Heap_Mem                                 0x20000170   Data        1024  startup_gd32f1x0.o(HEAP)
    HEAP                                     0x20000170   Section     1024  startup_gd32f1x0.o(HEAP)
    Stack_Mem                                0x20000570   Data        1024  startup_gd32f1x0.o(STACK)
    STACK                                    0x20000570   Section     1024  startup_gd32f1x0.o(STACK)
    __initial_sp                             0x20000970   Data           0  startup_gd32f1x0.o(STACK)

    Global Symbols

    Symbol Name                              Value     Ov Type        Size  Object(Section)

    BuildAttributes$$THM_ISAv4$P$D$K$B$S$PE$A:L22UL41UL21$X:L11$S22US41US21$IEEE1$IW$~IW$USESV6$~STKCKD$USESV7$~SHL$OTIME$ROPI$EBA8$UX$STANDARDLIB$REQ8$PRES8$EABIv2 0x00000000   Number         0  anon$$obj.o ABSOLUTE
    __fp_init_empty                          0x00000000   Number         0  fpinit_empty.o ABSOLUTE
    __ARM_exceptions_init                     - Undefined Weak Reference
    __alloca_initialize                       - Undefined Weak Reference
    __arm_preinit_                            - Undefined Weak Reference
    __arm_relocate_pie_                       - Undefined Weak Reference
    __cpp_initialize__aeabi_                  - Undefined Weak Reference
    __cxa_finalize                            - Undefined Weak Reference
    __rt_locale                               - Undefined Weak Reference
    __sigvec_lookup                           - Undefined Weak Reference
    _atexit_init                              - Undefined Weak Reference
    _call_atexit_fns                          - Undefined Weak Reference
    _clock_init                               - Undefined Weak Reference
    _fp_trap_init                             - Undefined Weak Reference
    _fp_trap_shutdown                         - Undefined Weak Reference
    _get_lc_collate                           - Undefined Weak Reference
    _get_lc_ctype                             - Undefined Weak Reference
    _get_lc_monetary                          - Undefined Weak Reference
    _get_lc_numeric                           - Undefined Weak Reference
    _get_lc_time                              - Undefined Weak Reference
    _getenv_init                              - Undefined Weak Reference
    _handle_redirection                       - Undefined Weak Reference
    _init_alloc                               - Undefined Weak Reference
    _init_user_alloc                          - Undefined Weak Reference
    _initio                                   - Undefined Weak Reference
    _rand_init                                - Undefined Weak Reference
    _signal_finish                            - Undefined Weak Reference
    _signal_init                              - Undefined Weak Reference
    _terminate_alloc                          - Undefined Weak Reference
    _terminate_user_alloc                     - Undefined Weak Reference
    _terminateio                              - Undefined Weak Reference
    __Vectors_Size                           0x00000168   Number         0  startup_gd32f1x0.o ABSOLUTE
    __Vectors                                0x08000000   Data           4  startup_gd32f1x0.o(RESET)
    __Vectors_End                            0x08000168   Data           0  startup_gd32f1x0.o(RESET)
    __main                                   0x08000169   Thumb Code     8  __main.o(!!!main)
    __scatterload                            0x08000171   Thumb Code     0  __scatter.o(!!!scatter)
    __scatterload_rt2                        0x08000171   Thumb Code    44  __scatter.o(!!!scatter)
    __scatterload_rt2_thumb_only             0x08000171   Thumb Code     0  __scatter.o(!!!scatter)
    __scatterload_null                       0x0800017f   Thumb Code     0  __scatter.o(!!!scatter)
    __scatterload_copy                       0x080001a5   Thumb Code    26  __scatter_copy.o(!!handler_copy)
    __scatterload_zeroinit                   0x080001c1   Thumb Code    28  __scatter_zi.o(!!handler_zi)
    __rt_lib_init                            0x080001dd   Thumb Code     0  libinit.o(.ARM.Collect$$libinit$$00000000)
    __rt_lib_init_alloca_1                   0x080001df   Thumb Code     0  libinit2.o(.ARM.Collect$$libinit$$00000030)
    __rt_lib_init_argv_1                     0x080001df   Thumb Code     0  libinit2.o(.ARM.Collect$$libinit$$0000002E)
    __rt_lib_init_atexit_1                   0x080001df   Thumb Code     0  libinit2.o(.ARM.Collect$$libinit$$0000001D)
    __rt_lib_init_clock_1                    0x080001df   Thumb Code     0  libinit2.o(.ARM.Collect$$libinit$$00000023)
    __rt_lib_init_cpp_1                      0x080001df   Thumb Code     0  libinit2.o(.ARM.Collect$$libinit$$00000034)
    __rt_lib_init_exceptions_1               0x080001df   Thumb Code     0  libinit2.o(.ARM.Collect$$libinit$$00000032)
    __rt_lib_init_fp_1                       0x080001df   Thumb Code     0  libinit2.o(.ARM.Collect$$libinit$$00000002)
    __rt_lib_init_fp_trap_1                  0x080001df   Thumb Code     0  libinit2.o(.ARM.Collect$$libinit$$00000021)
    __rt_lib_init_getenv_1                   0x080001df   Thumb Code     0  libinit2.o(.ARM.Collect$$libinit$$00000025)
    __rt_lib_init_heap_1                     0x080001df   Thumb Code     0  libinit2.o(.ARM.Collect$$libinit$$0000000C)
    __rt_lib_init_lc_collate_1               0x080001df   Thumb Code     0  libinit2.o(.ARM.Collect$$libinit$$00000013)
    __rt_lib_init_lc_ctype_1                 0x080001df   Thumb Code     0  libinit2.o(.ARM.Collect$$libinit$$00000015)
    __rt_lib_init_lc_monetary_1              0x080001df   Thumb Code     0  libinit2.o(.ARM.Collect$$libinit$$00000017)
    __rt_lib_init_lc_numeric_1               0x080001df   Thumb Code     0  libinit2.o(.ARM.Collect$$libinit$$00000019)
    __rt_lib_init_lc_time_1                  0x080001df   Thumb Code     0  libinit2.o(.ARM.Collect$$libinit$$0000001B)
    __rt_lib_init_preinit_1                  0x080001df   Thumb Code     0  libinit2.o(.ARM.Collect$$libinit$$00000006)
    __rt_lib_init_rand_1                     0x080001df   Thumb Code     0  libinit2.o(.ARM.Collect$$libinit$$00000010)
    __rt_lib_init_relocate_pie_1             0x080001df   Thumb Code     0  libinit2.o(.ARM.Collect$$libinit$$00000004)
    __rt_lib_init_return                     0x080001df   Thumb Code     0  libinit2.o(.ARM.Collect$$libinit$$00000035)
    __rt_lib_init_signal_1                   0x080001df   Thumb Code     0  libinit2.o(.ARM.Collect$$libinit$$0000001F)
    __rt_lib_init_stdio_1                    0x080001df   Thumb Code     0  libinit2.o(.ARM.Collect$$libinit$$00000027)
    __rt_lib_init_user_alloc_1               0x080001df   Thumb Code     0  libinit2.o(.ARM.Collect$$libinit$$0000000E)
    __rt_lib_shutdown                        0x080001e1   Thumb Code     0  libshutdown.o(.ARM.Collect$$libshutdown$$00000000)
    __rt_lib_shutdown_cpp_1                  0x080001e3   Thumb Code     0  libshutdown2.o(.ARM.Collect$$libshutdown$$00000002)
    __rt_lib_shutdown_fp_trap_1              0x080001e3   Thumb Code     0  libshutdown2.o(.ARM.Collect$$libshutdown$$00000007)
    __rt_lib_shutdown_heap_1                 0x080001e3   Thumb Code     0  libshutdown2.o(.ARM.Collect$$libshutdown$$0000000F)
    __rt_lib_shutdown_return                 0x080001e3   Thumb Code     0  libshutdown2.o(.ARM.Collect$$libshutdown$$00000010)
    __rt_lib_shutdown_signal_1               0x080001e3   Thumb Code     0  libshutdown2.o(.ARM.Collect$$libshutdown$$0000000A)
    __rt_lib_shutdown_stdio_1                0x080001e3   Thumb Code     0  libshutdown2.o(.ARM.Collect$$libshutdown$$00000004)
    __rt_lib_shutdown_user_alloc_1           0x080001e3   Thumb Code     0  libshutdown2.o(.ARM.Collect$$libshutdown$$0000000C)
    __rt_entry                               0x080001e5   Thumb Code     0  __rtentry.o(.ARM.Collect$$rtentry$$00000000)
    __rt_entry_presh_1                       0x080001e5   Thumb Code     0  __rtentry2.o(.ARM.Collect$$rtentry$$00000002)
    __rt_entry_sh                            0x080001e5   Thumb Code     0  __rtentry4.o(.ARM.Collect$$rtentry$$00000004)
    __rt_entry_li                            0x080001eb   Thumb Code     0  __rtentry2.o(.ARM.Collect$$rtentry$$0000000A)
    __rt_entry_postsh_1                      0x080001eb   Thumb Code     0  __rtentry2.o(.ARM.Collect$$rtentry$$00000009)
    __rt_entry_main                          0x080001ef   Thumb Code     0  __rtentry2.o(.ARM.Collect$$rtentry$$0000000D)
    __rt_entry_postli_1                      0x080001ef   Thumb Code     0  __rtentry2.o(.ARM.Collect$$rtentry$$0000000C)
    __rt_exit                                0x080001f7   Thumb Code     0  rtexit.o(.ARM.Collect$$rtexit$$00000000)
    __rt_exit_ls                             0x080001f9   Thumb Code     0  rtexit2.o(.ARM.Collect$$rtexit$$00000003)
    __rt_exit_prels_1                        0x080001f9   Thumb Code     0  rtexit2.o(.ARM.Collect$$rtexit$$00000002)
    __rt_exit_exit                           0x080001fd   Thumb Code     0  rtexit2.o(.ARM.Collect$$rtexit$$00000004)
    main                                     0x08000205   Thumb Code  1222  main.o(.text)
    ShowBatteryState                         0x080006cd   Thumb Code    96  main.o(.text)
    BeepsBackwards                           0x0800072d   Thumb Code    60  main.o(.text)
    ShutOff                                  0x08000769   Thumb Code   106  main.o(.text)
    blockPWM                                 0x080007d5   Thumb Code   102  bldc.o(.text)
    SetEnable                                0x0800083d   Thumb Code    12  bldc.o(.text)
    SetPWM                                   0x08000849   Thumb Code    38  bldc.o(.text)
    CalculateBLDC                            0x08000871   Thumb Code   862  bldc.o(.text)
    Interrupt_init                           0x08000bd1   Thumb Code     8  setup.o(.text)
    Watchdog_init                            0x08000bd9   Thumb Code    56  setup.o(.text)
    TimeoutTimer_init                        0x08000c11   Thumb Code    92  setup.o(.text)
    GPIO_init                                0x08000c6d   Thumb Code   788  setup.o(.text)
    PWM_init                                 0x08000f81   Thumb Code   372  setup.o(.text)
    ADC_init                                 0x080010f5   Thumb Code   234  setup.o(.text)
    USART_MasterSlave_init                   0x080011e1   Thumb Code   204  setup.o(.text)
    USART_Steer_COM_init                     0x080012ad   Thumb Code   204  setup.o(.text)
    SysTick_Handler                          0x08001379   Thumb Code    16  it.o(.text)
    ResetTimeout                             0x08001389   Thumb Code    14  it.o(.text)
    TIMER13_IRQHandler                       0x08001399   Thumb Code    96  it.o(.text)
    TIMER0_BRK_UP_TRG_COM_IRQHandler         0x080013f9   Thumb Code    26  it.o(.text)
    DMA_Channel0_IRQHandler                  0x08001415   Thumb Code    32  it.o(.text)
    DMA_Channel1_2_IRQHandler                0x08001435   Thumb Code    32  it.o(.text)
    DMA_Channel3_4_IRQHandler                0x08001455   Thumb Code    32  it.o(.text)
    millis                                   0x08001475   Thumb Code    12  it.o(.text)
    Delay                                    0x08001481   Thumb Code    28  it.o(.text)
    NMI_Handler                              0x0800149d   Thumb Code     2  it.o(.text)
    HardFault_Handler                        0x080014a1   Thumb Code     2  it.o(.text)
    MemManage_Handler                        0x080014a5   Thumb Code     2  it.o(.text)
    BusFault_Handler                         0x080014a9   Thumb Code     2  it.o(.text)
    UsageFault_Handler                       0x080014ad   Thumb Code     2  it.o(.text)
    SVC_Handler                              0x080014b1   Thumb Code     2  it.o(.text)
    DebugMon_Handler                         0x080014b5   Thumb Code     2  it.o(.text)
    PendSV_Handler                           0x080014b9   Thumb Code     2  it.o(.text)
    SendBuffer                               0x080014bd   Thumb Code    48  comms.o(.text)
    CalcCRC                                  0x080014ed   Thumb Code    60  comms.o(.text)
    SendSteerDevice                          0x08001529   Thumb Code   170  commssteering.o(.text)
    UpdateUSARTSteerInput                    0x080015d5   Thumb Code   118  commssteering.o(.text)
    UpdateUSARTMasterSlaveInput              0x0800164d   Thumb Code   180  commsmasterslave.o(.text)
    ProessReceived                           0x08001701   Thumb Code   106  commsmasterslave.o(.text)
    SendSlave                                0x0800176d   Thumb Code    98  commsmasterslave.o(.text)
    adc_deinit                               0x080017d1   Thumb Code    22  gd32f1x0_adc.o(.text)
    adc_enable                               0x080017e9   Thumb Code    26  gd32f1x0_adc.o(.text)
    adc_disable                              0x08001805   Thumb Code    18  gd32f1x0_adc.o(.text)
    adc_calibration_enable                   0x08001819   Thumb Code    40  gd32f1x0_adc.o(.text)
    adc_dma_mode_enable                      0x08001841   Thumb Code    18  gd32f1x0_adc.o(.text)
    adc_dma_mode_disable                     0x08001855   Thumb Code    18  gd32f1x0_adc.o(.text)
    adc_tempsensor_vrefint_enable            0x08001869   Thumb Code    18  gd32f1x0_adc.o(.text)
    adc_tempsensor_vrefint_disable           0x0800187d   Thumb Code    18  gd32f1x0_adc.o(.text)
    adc_vbat_enable                          0x08001891   Thumb Code    18  gd32f1x0_adc.o(.text)
    adc_vbat_disable                         0x080018a5   Thumb Code    18  gd32f1x0_adc.o(.text)
    adc_discontinuous_mode_config            0x080018b9   Thumb Code    68  gd32f1x0_adc.o(.text)
    adc_special_function_config              0x080018fd   Thumb Code   100  gd32f1x0_adc.o(.text)
    adc_data_alignment_config                0x08001961   Thumb Code    26  gd32f1x0_adc.o(.text)
    adc_channel_length_config                0x0800197d   Thumb Code    82  gd32f1x0_adc.o(.text)
    adc_regular_channel_config               0x080019d1   Thumb Code   180  gd32f1x0_adc.o(.text)
    adc_inserted_channel_config              0x08001a85   Thumb Code   114  gd32f1x0_adc.o(.text)
    adc_inserted_channel_offset_config       0x08001af9   Thumb Code    32  gd32f1x0_adc.o(.text)
    adc_external_trigger_config              0x08001b19   Thumb Code    72  gd32f1x0_adc.o(.text)
    adc_external_trigger_source_config       0x08001b61   Thumb Code    42  gd32f1x0_adc.o(.text)
    adc_software_trigger_enable              0x08001b8d   Thumb Code    36  gd32f1x0_adc.o(.text)
    adc_regular_data_read                    0x08001bb1   Thumb Code    14  gd32f1x0_adc.o(.text)
    adc_inserted_data_read                   0x08001bc1   Thumb Code    74  gd32f1x0_adc.o(.text)
    adc_flag_get                             0x08001c0d   Thumb Code    18  gd32f1x0_adc.o(.text)
    adc_flag_clear                           0x08001c21   Thumb Code    18  gd32f1x0_adc.o(.text)
    adc_interrupt_flag_get                   0x08001c35   Thumb Code    56  gd32f1x0_adc.o(.text)
    adc_interrupt_flag_clear                 0x08001c6d   Thumb Code    18  gd32f1x0_adc.o(.text)
    adc_interrupt_enable                     0x08001c81   Thumb Code    48  gd32f1x0_adc.o(.text)
    adc_interrupt_disable                    0x08001cb1   Thumb Code    48  gd32f1x0_adc.o(.text)
    adc_watchdog_single_channel_enable       0x08001ce1   Thumb Code    42  gd32f1x0_adc.o(.text)
    adc_watchdog_group_channel_enable        0x08001d0d   Thumb Code    48  gd32f1x0_adc.o(.text)
    adc_watchdog_disable                     0x08001d49   Thumb Code    24  gd32f1x0_adc.o(.text)
    adc_watchdog_threshold_config            0x08001d61   Thumb Code    22  gd32f1x0_adc.o(.text)
    dma_deinit                               0x08001d79   Thumb Code    48  gd32f1x0_dma.o(.text)
    dma_struct_para_init                     0x08001da9   Thumb Code    24  gd32f1x0_dma.o(.text)
    dma_init                                 0x08001dc1   Thumb Code   122  gd32f1x0_dma.o(.text)
    dma_circulation_enable                   0x08001e3d   Thumb Code    24  gd32f1x0_dma.o(.text)
    dma_circulation_disable                  0x08001e55   Thumb Code    24  gd32f1x0_dma.o(.text)
    dma_memory_to_memory_enable              0x08001e6d   Thumb Code    24  gd32f1x0_dma.o(.text)
    dma_memory_to_memory_disable             0x08001e85   Thumb Code    24  gd32f1x0_dma.o(.text)
    dma_channel_enable                       0x08001e9d   Thumb Code    24  gd32f1x0_dma.o(.text)
    dma_channel_disable                      0x08001eb5   Thumb Code    24  gd32f1x0_dma.o(.text)
    dma_periph_address_config                0x08001ecd   Thumb Code    16  gd32f1x0_dma.o(.text)
    dma_memory_address_config                0x08001edd   Thumb Code    16  gd32f1x0_dma.o(.text)
    dma_transfer_number_config               0x08001eed   Thumb Code    16  gd32f1x0_dma.o(.text)
    dma_transfer_number_get                  0x08001efd   Thumb Code    16  gd32f1x0_dma.o(.text)
    dma_priority_config                      0x08001f0d   Thumb Code    26  gd32f1x0_dma.o(.text)
    dma_memory_width_config                  0x08001f29   Thumb Code    26  gd32f1x0_dma.o(.text)
    dma_periph_width_config                  0x08001f45   Thumb Code    26  gd32f1x0_dma.o(.text)
    dma_memory_increase_enable               0x08001f61   Thumb Code    24  gd32f1x0_dma.o(.text)
    dma_memory_increase_disable              0x08001f79   Thumb Code    24  gd32f1x0_dma.o(.text)
    dma_periph_increase_enable               0x08001f91   Thumb Code    24  gd32f1x0_dma.o(.text)
    dma_periph_increase_disable              0x08001fa9   Thumb Code    24  gd32f1x0_dma.o(.text)
    dma_transfer_direction_config            0x08001fc1   Thumb Code    30  gd32f1x0_dma.o(.text)
    dma_interrupt_flag_get                   0x08001fe1   Thumb Code   116  gd32f1x0_dma.o(.text)
    dma_interrupt_flag_clear                 0x08002055   Thumb Code    20  gd32f1x0_dma.o(.text)
    dma_interrupt_enable                     0x08002069   Thumb Code    22  gd32f1x0_dma.o(.text)
    dma_interrupt_disable                    0x08002081   Thumb Code    24  gd32f1x0_dma.o(.text)
    dma_flag_get                             0x08002099   Thumb Code    22  gd32f1x0_dma.o(.text)
    dma_flag_clear                           0x080020b1   Thumb Code    20  gd32f1x0_dma.o(.text)
    fwdgt_write_disable                      0x080020c5   Thumb Code    14  gd32f1x0_fwdgt.o(.text)
    fwdgt_counter_reload                     0x080020d5   Thumb Code    16  gd32f1x0_fwdgt.o(.text)
    fwdgt_enable                             0x080020e5   Thumb Code    16  gd32f1x0_fwdgt.o(.text)
    fwdgt_window_value_config                0x080020f5   Thumb Code    52  gd32f1x0_fwdgt.o(.text)
    fwdgt_config                             0x08002129   Thumb Code   100  gd32f1x0_fwdgt.o(.text)
    fwdgt_flag_get                           0x0800218d   Thumb Code    18  gd32f1x0_fwdgt.o(.text)
    gpio_deinit                              0x080021a1   Thumb Code    58  gd32f1x0_gpio.o(.text)
    gpio_mode_set                            0x080021dd   Thumb Code    84  gd32f1x0_gpio.o(.text)
    gpio_output_options_set                  0x08002231   Thumb Code    70  gd32f1x0_gpio.o(.text)
    gpio_bit_set                             0x08002279   Thumb Code     4  gd32f1x0_gpio.o(.text)
    gpio_bit_reset                           0x0800227d   Thumb Code     4  gd32f1x0_gpio.o(.text)
    gpio_bit_write                           0x08002281   Thumb Code    12  gd32f1x0_gpio.o(.text)
    gpio_port_write                          0x0800228d   Thumb Code     4  gd32f1x0_gpio.o(.text)
    gpio_input_bit_get                       0x08002291   Thumb Code    10  gd32f1x0_gpio.o(.text)
    gpio_input_port_get                      0x0800229d   Thumb Code     6  gd32f1x0_gpio.o(.text)
    gpio_output_bit_get                      0x080022a5   Thumb Code    10  gd32f1x0_gpio.o(.text)
    gpio_output_port_get                     0x080022b1   Thumb Code     6  gd32f1x0_gpio.o(.text)
    gpio_af_set                              0x080022b9   Thumb Code   110  gd32f1x0_gpio.o(.text)
    gpio_pin_lock                            0x08002329   Thumb Code    16  gd32f1x0_gpio.o(.text)
    nvic_priority_group_set                  0x08002339   Thumb Code    20  gd32f1x0_misc.o(.text)
    nvic_irq_enable                          0x0800234d   Thumb Code   168  gd32f1x0_misc.o(.text)
    nvic_irq_disable                         0x080023f5   Thumb Code    30  gd32f1x0_misc.o(.text)
    nvic_vector_table_set                    0x08002415   Thumb Code    24  gd32f1x0_misc.o(.text)
    system_lowpower_set                      0x0800242d   Thumb Code    16  gd32f1x0_misc.o(.text)
    system_lowpower_reset                    0x0800243d   Thumb Code    18  gd32f1x0_misc.o(.text)
    systick_clksource_set                    0x08002451   Thumb Code    24  gd32f1x0_misc.o(.text)
    rcu_deinit                               0x08002469   Thumb Code   112  gd32f1x0_rcu.o(.text)
    rcu_periph_clock_enable                  0x080024d9   Thumb Code    30  gd32f1x0_rcu.o(.text)
    rcu_periph_clock_disable                 0x080024f9   Thumb Code    32  gd32f1x0_rcu.o(.text)
    rcu_periph_clock_sleep_enable            0x08002519   Thumb Code    30  gd32f1x0_rcu.o(.text)
    rcu_periph_clock_sleep_disable           0x08002539   Thumb Code    32  gd32f1x0_rcu.o(.text)
    rcu_periph_reset_enable                  0x08002559   Thumb Code    30  gd32f1x0_rcu.o(.text)
    rcu_periph_reset_disable                 0x08002579   Thumb Code    32  gd32f1x0_rcu.o(.text)
    rcu_bkp_reset_enable                     0x08002599   Thumb Code    18  gd32f1x0_rcu.o(.text)
    rcu_bkp_reset_disable                    0x080025ad   Thumb Code    18  gd32f1x0_rcu.o(.text)
    rcu_system_clock_source_config           0x080025c1   Thumb Code    20  gd32f1x0_rcu.o(.text)
    rcu_system_clock_source_get              0x080025d5   Thumb Code    16  gd32f1x0_rcu.o(.text)
    rcu_ahb_clock_config                     0x080025e5   Thumb Code    20  gd32f1x0_rcu.o(.text)
    rcu_apb1_clock_config                    0x080025f9   Thumb Code    20  gd32f1x0_rcu.o(.text)
    rcu_apb2_clock_config                    0x0800260d   Thumb Code    20  gd32f1x0_rcu.o(.text)
    rcu_adc_clock_config                     0x08002621   Thumb Code    88  gd32f1x0_rcu.o(.text)
    rcu_usbd_clock_config                    0x08002679   Thumb Code    24  gd32f1x0_rcu.o(.text)
    rcu_ckout_config                         0x08002691   Thumb Code    22  gd32f1x0_rcu.o(.text)
    rcu_pll_config                           0x080026a9   Thumb Code    36  gd32f1x0_rcu.o(.text)
    rcu_usart_clock_config                   0x080026cd   Thumb Code    24  gd32f1x0_rcu.o(.text)
    rcu_cec_clock_config                     0x080026e5   Thumb Code    24  gd32f1x0_rcu.o(.text)
    rcu_rtc_clock_config                     0x080026fd   Thumb Code    24  gd32f1x0_rcu.o(.text)
    rcu_hxtal_prediv_config                  0x08002715   Thumb Code    20  gd32f1x0_rcu.o(.text)
    rcu_lxtal_drive_capability_config        0x08002729   Thumb Code    24  gd32f1x0_rcu.o(.text)
    rcu_flag_get                             0x08002741   Thumb Code    26  gd32f1x0_rcu.o(.text)
    rcu_all_reset_flag_clear                 0x0800275d   Thumb Code    18  gd32f1x0_rcu.o(.text)
    rcu_interrupt_flag_get                   0x08002771   Thumb Code    18  gd32f1x0_rcu.o(.text)
    rcu_interrupt_flag_clear                 0x08002785   Thumb Code    16  gd32f1x0_rcu.o(.text)
    rcu_interrupt_enable                     0x08002795   Thumb Code    16  gd32f1x0_rcu.o(.text)
    rcu_interrupt_disable                    0x080027a5   Thumb Code    18  gd32f1x0_rcu.o(.text)
    rcu_osci_stab_wait                       0x080027b9   Thumb Code   324  gd32f1x0_rcu.o(.text)
    rcu_osci_on                              0x080028fd   Thumb Code    30  gd32f1x0_rcu.o(.text)
    rcu_osci_off                             0x0800291d   Thumb Code    32  gd32f1x0_rcu.o(.text)
    rcu_osci_bypass_mode_enable              0x0800293d   Thumb Code    64  gd32f1x0_rcu.o(.text)
    rcu_osci_bypass_mode_disable             0x0800297d   Thumb Code    64  gd32f1x0_rcu.o(.text)
    rcu_hxtal_clock_monitor_enable           0x080029bd   Thumb Code    18  gd32f1x0_rcu.o(.text)
    rcu_hxtal_clock_monitor_disable          0x080029d1   Thumb Code    18  gd32f1x0_rcu.o(.text)
    rcu_irc8m_adjust_value_set               0x080029e5   Thumb Code    22  gd32f1x0_rcu.o(.text)
    rcu_irc14m_adjust_value_set              0x080029fd   Thumb Code    22  gd32f1x0_rcu.o(.text)
    rcu_voltage_key_unlock                   0x08002a15   Thumb Code    30  gd32f1x0_rcu.o(.text)
    rcu_deepsleep_voltage_set                0x08002a35   Thumb Code    24  gd32f1x0_rcu.o(.text)
    rcu_power_down_voltage_set               0x08002a4d   Thumb Code    24  gd32f1x0_rcu.o(.text)
    rcu_clock_freq_get                       0x08002a65   Thumb Code   292  gd32f1x0_rcu.o(.text)
    timer_deinit                             0x08002b99   Thumb Code   194  gd32f1x0_timer.o(.text)
    timer_struct_para_init                   0x08002c5d   Thumb Code    16  gd32f1x0_timer.o(.text)
    timer_init                               0x08002c6d   Thumb Code   212  gd32f1x0_timer.o(.text)
    timer_enable                             0x08002d41   Thumb Code    10  gd32f1x0_timer.o(.text)
    timer_disable                            0x08002d4d   Thumb Code    10  gd32f1x0_timer.o(.text)
    timer_auto_reload_shadow_enable          0x08002d59   Thumb Code    10  gd32f1x0_timer.o(.text)
    timer_auto_reload_shadow_disable         0x08002d65   Thumb Code    10  gd32f1x0_timer.o(.text)
    timer_update_event_enable                0x08002d71   Thumb Code    10  gd32f1x0_timer.o(.text)
    timer_update_event_disable               0x08002d7d   Thumb Code    10  gd32f1x0_timer.o(.text)
    timer_counter_alignment                  0x08002d89   Thumb Code    16  gd32f1x0_timer.o(.text)
    timer_counter_up_direction               0x08002d99   Thumb Code    10  gd32f1x0_timer.o(.text)
    timer_counter_down_direction             0x08002da5   Thumb Code    10  gd32f1x0_timer.o(.text)
    timer_prescaler_config                   0x08002db1   Thumb Code    18  gd32f1x0_timer.o(.text)
    timer_repetition_value_config            0x08002dc5   Thumb Code     4  gd32f1x0_timer.o(.text)
    timer_autoreload_value_config            0x08002dc9   Thumb Code     4  gd32f1x0_timer.o(.text)
    timer_counter_value_config               0x08002dcd   Thumb Code     4  gd32f1x0_timer.o(.text)
    timer_counter_read                       0x08002dd1   Thumb Code     4  gd32f1x0_timer.o(.text)
    timer_prescaler_read                     0x08002dd5   Thumb Code     6  gd32f1x0_timer.o(.text)
    timer_single_pulse_mode_config           0x08002ddd   Thumb Code    30  gd32f1x0_timer.o(.text)
    timer_update_source_config               0x08002dfd   Thumb Code    30  gd32f1x0_timer.o(.text)
    timer_ocpre_clear_source_config          0x08002e1d   Thumb Code    28  gd32f1x0_timer.o(.text)
    timer_interrupt_enable                   0x08002e39   Thumb Code     8  gd32f1x0_timer.o(.text)
    timer_interrupt_disable                  0x08002e41   Thumb Code    10  gd32f1x0_timer.o(.text)
    timer_interrupt_flag_get                 0x08002e4d   Thumb Code    22  gd32f1x0_timer.o(.text)
    timer_interrupt_flag_clear               0x08002e65   Thumb Code     6  gd32f1x0_timer.o(.text)
    timer_flag_get                           0x08002e6d   Thumb Code    10  gd32f1x0_timer.o(.text)
    timer_flag_clear                         0x08002e79   Thumb Code     6  gd32f1x0_timer.o(.text)
    timer_dma_enable                         0x08002e81   Thumb Code     8  gd32f1x0_timer.o(.text)
    timer_dma_disable                        0x08002e89   Thumb Code    10  gd32f1x0_timer.o(.text)
    timer_channel_dma_request_source_select  0x08002e95   Thumb Code    30  gd32f1x0_timer.o(.text)
    timer_dma_transfer_config                0x08002eb5   Thumb Code    24  gd32f1x0_timer.o(.text)
    timer_event_software_generate            0x08002ecd   Thumb Code     8  gd32f1x0_timer.o(.text)
    timer_break_struct_para_init             0x08002ed5   Thumb Code    16  gd32f1x0_timer.o(.text)
    timer_break_config                       0x08002ee5   Thumb Code    36  gd32f1x0_timer.o(.text)
    timer_break_enable                       0x08002f09   Thumb Code    10  gd32f1x0_timer.o(.text)
    timer_break_disable                      0x08002f15   Thumb Code    10  gd32f1x0_timer.o(.text)
    timer_automatic_output_enable            0x08002f21   Thumb Code    10  gd32f1x0_timer.o(.text)
    timer_automatic_output_disable           0x08002f2d   Thumb Code    10  gd32f1x0_timer.o(.text)
    timer_primary_output_config              0x08002f39   Thumb Code    18  gd32f1x0_timer.o(.text)
    timer_channel_control_shadow_config      0x08002f4d   Thumb Code    16  gd32f1x0_timer.o(.text)
    timer_channel_control_shadow_update_config 0x08002f5d   Thumb Code    30  gd32f1x0_timer.o(.text)
    timer_channel_output_struct_para_init    0x08002f7d   Thumb Code    12  gd32f1x0_timer.o(.text)
    timer_channel_output_config              0x08002f89   Thumb Code   550  gd32f1x0_timer.o(.text)
    timer_channel_output_mode_config         0x080031b1   Thumb Code    58  gd32f1x0_timer.o(.text)
    timer_channel_output_pulse_value_config  0x080031ed   Thumb Code    12  gd32f1x0_timer.o(.text)
    timer_channel_output_shadow_config       0x080031f9   Thumb Code    58  gd32f1x0_timer.o(.text)
    timer_channel_output_fast_config         0x08003235   Thumb Code    58  gd32f1x0_timer.o(.text)
    timer_channel_output_clear_config        0x08003271   Thumb Code    58  gd32f1x0_timer.o(.text)
    timer_channel_output_polarity_config     0x080032ad   Thumb Code    74  gd32f1x0_timer.o(.text)
    timer_channel_complementary_output_polarity_config 0x080032f9   Thumb Code    74  gd32f1x0_timer.o(.text)
    timer_channel_output_state_config        0x08003345   Thumb Code    74  gd32f1x0_timer.o(.text)
    timer_channel_complementary_output_state_config 0x08003391   Thumb Code    60  gd32f1x0_timer.o(.text)
    timer_channel_input_struct_para_init     0x080033cd   Thumb Code    12  gd32f1x0_timer.o(.text)
    timer_input_capture_config               0x080033d9   Thumb Code   346  gd32f1x0_timer.o(.text)
    timer_channel_input_capture_prescaler_config 0x08003535   Thumb Code    58  gd32f1x0_timer.o(.text)
    timer_channel_capture_value_register_read 0x08003571   Thumb Code    14  gd32f1x0_timer.o(.text)
    timer_input_pwm_capture_config           0x08003581   Thumb Code   356  gd32f1x0_timer.o(.text)
    timer_hall_mode_config                   0x080036e5   Thumb Code    30  gd32f1x0_timer.o(.text)
    timer_input_trigger_source_select        0x08003705   Thumb Code    16  gd32f1x0_timer.o(.text)
    timer_master_output_trigger_source_select 0x08003715   Thumb Code    16  gd32f1x0_timer.o(.text)
    timer_slave_mode_select                  0x08003725   Thumb Code    16  gd32f1x0_timer.o(.text)
    timer_master_slave_mode_config           0x08003735   Thumb Code    30  gd32f1x0_timer.o(.text)
    timer_external_trigger_config            0x08003755   Thumb Code    34  gd32f1x0_timer.o(.text)
    timer_quadrature_decoder_mode_config     0x08003779   Thumb Code    78  gd32f1x0_timer.o(.text)
    timer_internal_clock_config              0x080037c9   Thumb Code    10  gd32f1x0_timer.o(.text)
    timer_internal_trigger_as_external_clock_config 0x080037d5   Thumb Code    32  gd32f1x0_timer.o(.text)
    timer_external_trigger_as_external_clock_config 0x080037f5   Thumb Code   148  gd32f1x0_timer.o(.text)
    timer_external_clock_mode0_config        0x08003889   Thumb Code    50  gd32f1x0_timer.o(.text)
    timer_external_clock_mode1_config        0x080038bd   Thumb Code    42  gd32f1x0_timer.o(.text)
    timer_external_clock_mode1_disable       0x080038e9   Thumb Code    10  gd32f1x0_timer.o(.text)
    timer_channel_remap_config               0x080038f5   Thumb Code     4  gd32f1x0_timer.o(.text)
    usart_deinit                             0x080038f9   Thumb Code    54  gd32f1x0_usart.o(.text)
    usart_baudrate_set                       0x08003931   Thumb Code    90  gd32f1x0_usart.o(.text)
    usart_parity_config                      0x0800398d   Thumb Code    24  gd32f1x0_usart.o(.text)
    usart_word_length_set                    0x080039a5   Thumb Code    24  gd32f1x0_usart.o(.text)
    usart_stop_bit_set                       0x080039bd   Thumb Code    24  gd32f1x0_usart.o(.text)
    usart_enable                             0x080039d5   Thumb Code    10  gd32f1x0_usart.o(.text)
    usart_disable                            0x080039e1   Thumb Code    10  gd32f1x0_usart.o(.text)
    usart_transmit_config                    0x080039ed   Thumb Code    16  gd32f1x0_usart.o(.text)
    usart_receive_config                     0x080039fd   Thumb Code    16  gd32f1x0_usart.o(.text)
    usart_data_transmit                      0x08003a0d   Thumb Code     8  gd32f1x0_usart.o(.text)
    usart_data_receive                       0x08003a15   Thumb Code     8  gd32f1x0_usart.o(.text)
    usart_data_first_config                  0x08003a1d   Thumb Code    28  gd32f1x0_usart.o(.text)
    usart_invert_config                      0x08003a39   Thumb Code   106  gd32f1x0_usart.o(.text)
    usart_overrun_enable                     0x08003aa5   Thumb Code    18  gd32f1x0_usart.o(.text)
    usart_overrun_disable                    0x08003ab9   Thumb Code    18  gd32f1x0_usart.o(.text)
    usart_oversample_config                  0x08003acd   Thumb Code    24  gd32f1x0_usart.o(.text)
    usart_sample_bit_config                  0x08003ae5   Thumb Code    24  gd32f1x0_usart.o(.text)
    usart_autobaud_detection_enable          0x08003afd   Thumb Code    10  gd32f1x0_usart.o(.text)
    usart_autobaud_detection_disable         0x08003b09   Thumb Code    10  gd32f1x0_usart.o(.text)
    usart_autobaud_detection_mode_config     0x08003b15   Thumb Code    16  gd32f1x0_usart.o(.text)
    usart_mute_mode_enable                   0x08003b25   Thumb Code    10  gd32f1x0_usart.o(.text)
    usart_mute_mode_disable                  0x08003b31   Thumb Code    10  gd32f1x0_usart.o(.text)
    usart_mute_mode_wakeup_config            0x08003b3d   Thumb Code    24  gd32f1x0_usart.o(.text)
    usart_address_detection_mode_config      0x08003b55   Thumb Code    28  gd32f1x0_usart.o(.text)
    usart_address_config                     0x08003b71   Thumb Code    26  gd32f1x0_usart.o(.text)
    usart_receiver_timeout_enable            0x08003b8d   Thumb Code    10  gd32f1x0_usart.o(.text)
    usart_receiver_timeout_disable           0x08003b99   Thumb Code    10  gd32f1x0_usart.o(.text)
    usart_receiver_timeout_config            0x08003ba5   Thumb Code    16  gd32f1x0_usart.o(.text)
    usart_lin_mode_enable                    0x08003bb5   Thumb Code    18  gd32f1x0_usart.o(.text)
    usart_lin_mode_disable                   0x08003bc9   Thumb Code    18  gd32f1x0_usart.o(.text)
    usart_lin_break_detection_length_config  0x08003bdd   Thumb Code    20  gd32f1x0_usart.o(.text)
    usart_halfduplex_enable                  0x08003bf1   Thumb Code    18  gd32f1x0_usart.o(.text)
    usart_halfduplex_disable                 0x08003c05   Thumb Code    18  gd32f1x0_usart.o(.text)
    usart_clock_enable                       0x08003c19   Thumb Code    18  gd32f1x0_usart.o(.text)
    usart_clock_disable                      0x08003c2d   Thumb Code    18  gd32f1x0_usart.o(.text)
    usart_synchronous_clock_config           0x08003c41   Thumb Code    60  gd32f1x0_usart.o(.text)
    usart_smartcard_mode_enable              0x08003c7d   Thumb Code    18  gd32f1x0_usart.o(.text)
    usart_smartcard_mode_disable             0x08003c91   Thumb Code    18  gd32f1x0_usart.o(.text)
    usart_smartcard_mode_nack_enable         0x08003ca5   Thumb Code    18  gd32f1x0_usart.o(.text)
    usart_smartcard_mode_nack_disable        0x08003cb9   Thumb Code    18  gd32f1x0_usart.o(.text)
    usart_guard_time_config                  0x08003ccd   Thumb Code    28  gd32f1x0_usart.o(.text)
    usart_block_length_config                0x08003ce9   Thumb Code    18  gd32f1x0_usart.o(.text)
    usart_smartcard_autoretry_config         0x08003cfd   Thumb Code    30  gd32f1x0_usart.o(.text)
    usart_irda_mode_enable                   0x08003d1d   Thumb Code    18  gd32f1x0_usart.o(.text)
    usart_irda_mode_disable                  0x08003d31   Thumb Code    18  gd32f1x0_usart.o(.text)
    usart_irda_lowpower_config               0x08003d45   Thumb Code    20  gd32f1x0_usart.o(.text)
    usart_prescaler_config                   0x08003d59   Thumb Code    24  gd32f1x0_usart.o(.text)
    usart_hardware_flow_rts_config           0x08003d71   Thumb Code    24  gd32f1x0_usart.o(.text)
    usart_hardware_flow_cts_config           0x08003d89   Thumb Code    24  gd32f1x0_usart.o(.text)
    usart_rs485_driver_enable                0x08003da1   Thumb Code    18  gd32f1x0_usart.o(.text)
    usart_rs485_driver_disable               0x08003db5   Thumb Code    18  gd32f1x0_usart.o(.text)
    usart_driver_assertime_config            0x08003dc9   Thumb Code    30  gd32f1x0_usart.o(.text)
    usart_driver_deassertime_config          0x08003de9   Thumb Code    30  gd32f1x0_usart.o(.text)
    usart_depolarity_config                  0x08003e09   Thumb Code    28  gd32f1x0_usart.o(.text)
    usart_dma_receive_config                 0x08003e25   Thumb Code    16  gd32f1x0_usart.o(.text)
    usart_dma_transmit_config                0x08003e35   Thumb Code    16  gd32f1x0_usart.o(.text)
    usart_reception_error_dma_disable        0x08003e45   Thumb Code    18  gd32f1x0_usart.o(.text)
    usart_reception_error_dma_enable         0x08003e59   Thumb Code    18  gd32f1x0_usart.o(.text)
    usart_wakeup_enable                      0x08003e6d   Thumb Code    10  gd32f1x0_usart.o(.text)
    usart_wakeup_disable                     0x08003e79   Thumb Code    10  gd32f1x0_usart.o(.text)
    usart_wakeup_mode_config                 0x08003e85   Thumb Code    28  gd32f1x0_usart.o(.text)
    usart_flag_get                           0x08003ea1   Thumb Code    16  gd32f1x0_usart.o(.text)
    usart_flag_clear                         0x08003eb1   Thumb Code    18  gd32f1x0_usart.o(.text)
    usart_interrupt_enable                   0x08003ec5   Thumb Code    24  gd32f1x0_usart.o(.text)
    usart_interrupt_disable                  0x08003edd   Thumb Code    26  gd32f1x0_usart.o(.text)
    usart_command_enable                     0x08003ef9   Thumb Code     8  gd32f1x0_usart.o(.text)
    usart_interrupt_flag_get                 0x08003f01   Thumb Code    34  gd32f1x0_usart.o(.text)
    usart_interrupt_flag_clear               0x08003f25   Thumb Code    18  gd32f1x0_usart.o(.text)
    Reset_Handler                            0x08003f39   Thumb Code     8  startup_gd32f1x0.o(.text)
    ADC_CMP_IRQHandler                       0x08003f53   Thumb Code     0  startup_gd32f1x0.o(.text)
    CAN0_RX0_IRQHandler                      0x08003f53   Thumb Code     0  startup_gd32f1x0.o(.text)
    CAN0_RX1_IRQHandler                      0x08003f53   Thumb Code     0  startup_gd32f1x0.o(.text)
    CAN0_SCE_IRQHandler                      0x08003f53   Thumb Code     0  startup_gd32f1x0.o(.text)
    CAN0_TX_IRQHandler                       0x08003f53   Thumb Code     0  startup_gd32f1x0.o(.text)
    CAN1_RX0_IRQHandler                      0x08003f53   Thumb Code     0  startup_gd32f1x0.o(.text)
    CAN1_RX1_IRQHandler                      0x08003f53   Thumb Code     0  startup_gd32f1x0.o(.text)
    CAN1_SCE_IRQHandler                      0x08003f53   Thumb Code     0  startup_gd32f1x0.o(.text)
    CAN1_TX_IRQHandler                       0x08003f53   Thumb Code     0  startup_gd32f1x0.o(.text)
    CEC_IRQHandler                           0x08003f53   Thumb Code     0  startup_gd32f1x0.o(.text)
    DMA_Channel5_6_IRQHandler                0x08003f53   Thumb Code     0  startup_gd32f1x0.o(.text)
    EXTI0_1_IRQHandler                       0x08003f53   Thumb Code     0  startup_gd32f1x0.o(.text)
    EXTI2_3_IRQHandler                       0x08003f53   Thumb Code     0  startup_gd32f1x0.o(.text)
    EXTI4_15_IRQHandler                      0x08003f53   Thumb Code     0  startup_gd32f1x0.o(.text)
    FMC_IRQHandler                           0x08003f53   Thumb Code     0  startup_gd32f1x0.o(.text)
    I2C0_ER_IRQHandler                       0x08003f53   Thumb Code     0  startup_gd32f1x0.o(.text)
    I2C0_EV_IRQHandler                       0x08003f53   Thumb Code     0  startup_gd32f1x0.o(.text)
    I2C1_ER_IRQHandler                       0x08003f53   Thumb Code     0  startup_gd32f1x0.o(.text)
    I2C1_EV_IRQHandler                       0x08003f53   Thumb Code     0  startup_gd32f1x0.o(.text)
    I2C2_ER_IRQHandler                       0x08003f53   Thumb Code     0  startup_gd32f1x0.o(.text)
    I2C2_EV_IRQHandler                       0x08003f53   Thumb Code     0  startup_gd32f1x0.o(.text)
    LVD_IRQHandler                           0x08003f53   Thumb Code     0  startup_gd32f1x0.o(.text)
    RCU_IRQHandler                           0x08003f53   Thumb Code     0  startup_gd32f1x0.o(.text)
    RTC_IRQHandler                           0x08003f53   Thumb Code     0  startup_gd32f1x0.o(.text)
    SLCD_IRQHandler                          0x08003f53   Thumb Code     0  startup_gd32f1x0.o(.text)
    SPI0_IRQHandler                          0x08003f53   Thumb Code     0  startup_gd32f1x0.o(.text)
    SPI1_IRQHandler                          0x08003f53   Thumb Code     0  startup_gd32f1x0.o(.text)
    SPI2_IRQHandler                          0x08003f53   Thumb Code     0  startup_gd32f1x0.o(.text)
    TIMER0_Channel_IRQHandler                0x08003f53   Thumb Code     0  startup_gd32f1x0.o(.text)
    TIMER14_IRQHandler                       0x08003f53   Thumb Code     0  startup_gd32f1x0.o(.text)
    TIMER15_IRQHandler                       0x08003f53   Thumb Code     0  startup_gd32f1x0.o(.text)
    TIMER16_IRQHandler                       0x08003f53   Thumb Code     0  startup_gd32f1x0.o(.text)
    TIMER1_IRQHandler                        0x08003f53   Thumb Code     0  startup_gd32f1x0.o(.text)
    TIMER2_IRQHandler                        0x08003f53   Thumb Code     0  startup_gd32f1x0.o(.text)
    TIMER5_DAC_IRQHandler                    0x08003f53   Thumb Code     0  startup_gd32f1x0.o(.text)
    TSI_IRQHandler                           0x08003f53   Thumb Code     0  startup_gd32f1x0.o(.text)
    USART0_IRQHandler                        0x08003f53   Thumb Code     0  startup_gd32f1x0.o(.text)
    USART1_IRQHandler                        0x08003f53   Thumb Code     0  startup_gd32f1x0.o(.text)
    USBDWakeUp_IRQHandler                    0x08003f53   Thumb Code     0  startup_gd32f1x0.o(.text)
    USBD_HP_IRQHandler                       0x08003f53   Thumb Code     0  startup_gd32f1x0.o(.text)
    USBD_LP_IRQHandler                       0x08003f53   Thumb Code     0  startup_gd32f1x0.o(.text)
    WWDGT_IRQHandler                         0x08003f53   Thumb Code     0  startup_gd32f1x0.o(.text)
    __user_initial_stackheap                 0x08003f55   Thumb Code    10  startup_gd32f1x0.o(.text)
    SystemInit                               0x08003f79   Thumb Code   188  system_gd32f1x0.o(.text)
    SystemCoreClockUpdate                    0x08004035   Thumb Code   112  system_gd32f1x0.o(.text)
    __use_two_region_memory                  0x080040b5   Thumb Code     2  heapauxi.o(.text)
    __rt_heap_escrow$2region                 0x080040b7   Thumb Code     2  heapauxi.o(.text)
    __rt_heap_expand$2region                 0x080040b9   Thumb Code     2  heapauxi.o(.text)
    __user_setup_stackheap                   0x080040bb   Thumb Code    74  sys_stackheap_outer.o(.text)
    exit                                     0x08004105   Thumb Code    18  exit.o(.text)
    __user_libspace                          0x08004119   Thumb Code     8  libspace.o(.text)
    __user_perproc_libspace                  0x08004119   Thumb Code     0  libspace.o(.text)
    __user_perthread_libspace                0x08004119   Thumb Code     0  libspace.o(.text)
    _sys_exit                                0x08004121   Thumb Code     8  sys_exit.o(.text)
    __I$use$semihosting                      0x0800412d   Thumb Code     0  use_no_semi.o(.text)
    __use_no_semihosting_swi                 0x0800412d   Thumb Code     2  use_no_semi.o(.text)
    __semihosting_library_function           0x0800412f   Thumb Code     0  indicate_semi.o(.text)
    __aeabi_d2f                              0x08004131   Thumb Code     0  d2f.o(x$fpl$d2f)
    _d2f                                     0x08004131   Thumb Code    98  d2f.o(x$fpl$d2f)
    __aeabi_dadd                             0x08004195   Thumb Code     0  daddsub_clz.o(x$fpl$dadd)
    _dadd                                    0x08004195   Thumb Code   332  daddsub_clz.o(x$fpl$dadd)
    __fpl_dcmp_Inf                           0x080042e5   Thumb Code    24  dcmpi.o(x$fpl$dcmpinf)
    __aeabi_ddiv                             0x080042fd   Thumb Code     0  ddiv.o(x$fpl$ddiv)
    _ddiv                                    0x080042fd   Thumb Code   556  ddiv.o(x$fpl$ddiv)
    __aeabi_cdcmpeq                          0x080045b1   Thumb Code     0  deqf.o(x$fpl$deqf)
    _dcmpeq                                  0x080045b1   Thumb Code   120  deqf.o(x$fpl$deqf)
    __aeabi_i2d                              0x08004629   Thumb Code     0  dflt_clz.o(x$fpl$dflt)
    _dflt                                    0x08004629   Thumb Code    46  dflt_clz.o(x$fpl$dflt)
    __aeabi_ui2d                             0x08004657   Thumb Code     0  dflt_clz.o(x$fpl$dfltu)
    _dfltu                                   0x08004657   Thumb Code    38  dflt_clz.o(x$fpl$dfltu)
    __aeabi_cdcmpge                          0x0800467d   Thumb Code     0  dgeqf.o(x$fpl$dgeqf)
    _dcmpge                                  0x0800467d   Thumb Code   120  dgeqf.o(x$fpl$dgeqf)
    __aeabi_cdcmple                          0x080046f5   Thumb Code     0  dleqf.o(x$fpl$dleqf)
    _dcmple                                  0x080046f5   Thumb Code   120  dleqf.o(x$fpl$dleqf)
    __fpl_dcmple_InfNaN                      0x08004757   Thumb Code     0  dleqf.o(x$fpl$dleqf)
    __aeabi_dmul                             0x0800476d   Thumb Code     0  dmul.o(x$fpl$dmul)
    _dmul                                    0x0800476d   Thumb Code   332  dmul.o(x$fpl$dmul)
    __fpl_dnaninf                            0x080048c1   Thumb Code   156  dnaninf.o(x$fpl$dnaninf)
    __fpl_dretinf                            0x0800495d   Thumb Code    12  dretinf.o(x$fpl$dretinf)
    __aeabi_dsub                             0x08004969   Thumb Code     0  daddsub_clz.o(x$fpl$dsub)
    _dsub                                    0x08004969   Thumb Code   472  daddsub_clz.o(x$fpl$dsub)
    __aeabi_f2d                              0x08004b45   Thumb Code     0  f2d.o(x$fpl$f2d)
    _f2d                                     0x08004b45   Thumb Code    86  f2d.o(x$fpl$f2d)
    __aeabi_fadd                             0x08004b9d   Thumb Code     0  faddsub_clz.o(x$fpl$fadd)
    _fadd                                    0x08004b9d   Thumb Code   196  faddsub_clz.o(x$fpl$fadd)
    __aeabi_dcmpeq                           0x08004c61   Thumb Code     0  dcmp.o(x$fpl$fcmp)
    _deq                                     0x08004c61   Thumb Code    14  dcmp.o(x$fpl$fcmp)
    _dneq                                    0x08004c6f   Thumb Code    14  dcmp.o(x$fpl$fcmp)
    __aeabi_dcmpgt                           0x08004c7d   Thumb Code     0  dcmp.o(x$fpl$fcmp)
    _dgr                                     0x08004c7d   Thumb Code    14  dcmp.o(x$fpl$fcmp)
    __aeabi_dcmpge                           0x08004c8b   Thumb Code     0  dcmp.o(x$fpl$fcmp)
    _dgeq                                    0x08004c8b   Thumb Code    14  dcmp.o(x$fpl$fcmp)
    __aeabi_dcmple                           0x08004c99   Thumb Code     0  dcmp.o(x$fpl$fcmp)
    _dleq                                    0x08004c99   Thumb Code    14  dcmp.o(x$fpl$fcmp)
    __aeabi_dcmplt                           0x08004ca7   Thumb Code     0  dcmp.o(x$fpl$fcmp)
    _dls                                     0x08004ca7   Thumb Code    14  dcmp.o(x$fpl$fcmp)
    __aeabi_fcmpeq                           0x08004cb5   Thumb Code     0  fcmp.o(x$fpl$fcmp)
    _feq                                     0x08004cb5   Thumb Code    14  fcmp.o(x$fpl$fcmp)
    _fneq                                    0x08004cc3   Thumb Code    14  fcmp.o(x$fpl$fcmp)
    __aeabi_fcmpgt                           0x08004cd1   Thumb Code     0  fcmp.o(x$fpl$fcmp)
    _fgr                                     0x08004cd1   Thumb Code    14  fcmp.o(x$fpl$fcmp)
    __aeabi_fcmpge                           0x08004cdf   Thumb Code     0  fcmp.o(x$fpl$fcmp)
    _fgeq                                    0x08004cdf   Thumb Code    14  fcmp.o(x$fpl$fcmp)
    __aeabi_fcmple                           0x08004ced   Thumb Code     0  fcmp.o(x$fpl$fcmp)
    _fleq                                    0x08004ced   Thumb Code    14  fcmp.o(x$fpl$fcmp)
    __aeabi_fcmplt                           0x08004cfb   Thumb Code     0  fcmp.o(x$fpl$fcmp)
    _fls                                     0x08004cfb   Thumb Code    14  fcmp.o(x$fpl$fcmp)
    __fpl_fcmp_Inf                           0x08004d09   Thumb Code    24  fcmpi.o(x$fpl$fcmpinf)
    __aeabi_fdiv                             0x08004d21   Thumb Code     0  fdiv.o(x$fpl$fdiv)
    _fdiv                                    0x08004d21   Thumb Code   384  fdiv.o(x$fpl$fdiv)
    __aeabi_cfcmpeq                          0x08004ea5   Thumb Code     0  feqf.o(x$fpl$feqf)
    _fcmpeq                                  0x08004ea5   Thumb Code   104  feqf.o(x$fpl$feqf)
    __aeabi_f2iz                             0x08004f0d   Thumb Code     0  ffix.o(x$fpl$ffix)
    _ffix                                    0x08004f0d   Thumb Code    54  ffix.o(x$fpl$ffix)
    __aeabi_i2f                              0x08004f45   Thumb Code     0  fflt_clz.o(x$fpl$fflt)
    _fflt                                    0x08004f45   Thumb Code    48  fflt_clz.o(x$fpl$fflt)
    __aeabi_ui2f                             0x08004f75   Thumb Code     0  fflt_clz.o(x$fpl$ffltu)
    _ffltu                                   0x08004f75   Thumb Code    38  fflt_clz.o(x$fpl$ffltu)
    _fcmpge                                  0x08004f9d   Thumb Code   104  fgeqf.o(x$fpl$fgeqf)
    __aeabi_cfcmple                          0x08005005   Thumb Code     0  fleqf.o(x$fpl$fleqf)
    _fcmple                                  0x08005005   Thumb Code   104  fleqf.o(x$fpl$fleqf)
    __fpl_fcmple_InfNaN                      0x08005057   Thumb Code     0  fleqf.o(x$fpl$fleqf)
    __aeabi_fmul                             0x0800506d   Thumb Code     0  fmul.o(x$fpl$fmul)
    _fmul                                    0x0800506d   Thumb Code   258  fmul.o(x$fpl$fmul)
    __fpl_fnaninf                            0x0800516f   Thumb Code   140  fnaninf.o(x$fpl$fnaninf)
    __fpl_fretinf                            0x080051fb   Thumb Code    10  fretinf.o(x$fpl$fretinf)
    __aeabi_fsub                             0x08005205   Thumb Code     0  faddsub_clz.o(x$fpl$fsub)
    _fsub                                    0x08005205   Thumb Code   234  faddsub_clz.o(x$fpl$fsub)
    __I$use$fp                               0x080052ee   Number         0  usenofp.o(x$fpl$usenofp)
    hall_to_pos                              0x08005302   Data           8  bldc.o(.rodata.hall_to_pos)
    lookUpTableAngle                         0x0800530c   Data         724  main.o(.rodata.lookUpTableAngle)
    Region$$Table$$Base                      0x080055e0   Number         0  anon$$obj.o(Region$$Table)
    Region$$Table$$Limit                     0x08005600   Number         0  anon$$obj.o(Region$$Table)
    SystemCoreClock                          0x20000000   Data           4  system_gd32f1x0.o(.data.SystemCoreClock)
    batteryVoltage                           0x20000004   Data           4  bldc.o(.data.batteryVoltage)
    beepsBackwards                           0x20000008   Data           1  main.o(.data.beepsBackwards)
    offsetdc                                 0x2000000e   Data           2  bldc.o(.data.offsetdc)
    timedOut                                 0x20000010   Data           1  it.o(.data.timedOut)
    __libspace_start                         0x20000018   Data          96  libspace.o(.bss)
    __temporary_stack_top$libspace           0x20000078   Data           0  libspace.o(.bss)
    adc_buffer                               0x2000008c   Data           4  bldc.o(.bss.adc_buffer)
    bldc_enable                              0x20000090   Data           1  bldc.o(.bss.bldc_enable)
    bldc_inputFilterPwm                      0x20000092   Data           2  bldc.o(.bss.bldc_inputFilterPwm)
    bldc_outputFilterPwm                     0x20000094   Data           2  bldc.o(.bss.bldc_outputFilterPwm)
    buzzerFreq                               0x20000096   Data           1  bldc.o(.bss.buzzerFreq)
    buzzerPattern                            0x20000097   Data           1  bldc.o(.bss.buzzerPattern)
    buzzerTimer                              0x20000098   Data           2  bldc.o(.bss.buzzerTimer)
    buzzerToggle                             0x2000009a   Data           1  bldc.o(.bss.buzzerToggle)
    currentDC                                0x2000009c   Data           4  bldc.o(.bss.currentDC)
    dma_init_struct_adc                      0x200000a0   Data          36  setup.o(.bss.dma_init_struct_adc)
    dma_init_struct_usart                    0x200000c4   Data          36  setup.o(.bss.dma_init_struct_usart)
    filter_reg                               0x200000e8   Data           4  bldc.o(.bss.filter_reg)
    hall                                     0x200000ec   Data           1  bldc.o(.bss.hall)
    hall_a                                   0x200000ed   Data           1  bldc.o(.bss.hall_a)
    hall_b                                   0x200000ee   Data           1  bldc.o(.bss.hall_b)
    hall_c                                   0x200000ef   Data           1  bldc.o(.bss.hall_c)
    inactivity_timeout_counter               0x200000f0   Data           4  main.o(.bss.inactivity_timeout_counter)
    lastPos                                  0x200000f4   Data           1  bldc.o(.bss.lastPos)
    msTicks                                  0x200000f8   Data           4  it.o(.bss.msTicks)
    oDataSlave                               0x200000fc   Data          12  main.o(.bss.oDataSlave)
    offsetcount                              0x20000108   Data           2  bldc.o(.bss.offsetcount)
    pos                                      0x2000010a   Data           1  bldc.o(.bss.pos)
    realSpeed                                0x2000010c   Data           4  bldc.o(.bss.realSpeed)
    speed                                    0x20000110   Data           4  main.o(.bss.speed)
    speedCounter                             0x20000114   Data           4  bldc.o(.bss.speedCounter)
    steer                                    0x20000118   Data           4  main.o(.bss.steer)
    steerCounter                             0x2000011c   Data           4  main.o(.bss.steerCounter)
    timeoutCounter_ms                        0x20000120   Data           4  it.o(.bss.timeoutCounter_ms)
    timeoutTimer_paramter_struct             0x20000124   Data          16  setup.o(.bss.timeoutTimer_paramter_struct)
    timerBldc_break_parameter_struct         0x20000134   Data          24  setup.o(.bss.timerBldc_break_parameter_struct)
    timerBldc_oc_parameter_struct            0x2000014c   Data          16  setup.o(.bss.timerBldc_oc_parameter_struct)
    timerBldc_paramter_struct                0x2000015c   Data          16  setup.o(.bss.timerBldc_paramter_struct)
    usartMasterSlave_rx_buf                  0x2000016c   Data           1  setup.o(.bss.usartMasterSlave_rx_buf)
    usartSteer_COM_rx_buf                    0x2000016d   Data           1  setup.o(.bss.usartSteer_COM_rx_buf)



==============================================================================

Memory Map of the image

  Image Entry point : 0x08000169

  Load Region LR_IROM1 (Base: 0x08000000, Size: 0x00005618, Max: 0x00010000, ABSOLUTE)

    Execution Region ER_IROM1 (Exec base: 0x08000000, Load base: 0x08000000, Size: 0x00005600, Max: 0x00010000, ABSOLUTE)

    Exec Addr    Load Addr    Size         Type   Attr      Idx    E Section Name        Object

    0x08000000   0x08000000   0x00000168   Data   RO          100    RESET               startup_gd32f1x0.o
    0x08000168   0x08000168   0x00000008   Code   RO          108  * !!!main             c_w.l(__main.o)
    0x08000170   0x08000170   0x00000034   Code   RO          275    !!!scatter          c_w.l(__scatter.o)
    0x080001a4   0x080001a4   0x0000001a   Code   RO          276    !!handler_copy      c_w.l(__scatter_copy.o)
    0x080001be   0x080001be   0x00000002   PAD
    0x080001c0   0x080001c0   0x0000001c   Code   RO          277    !!handler_zi        c_w.l(__scatter_zi.o)
    0x080001dc   0x080001dc   0x00000002   Code   RO          167    .ARM.Collect$$libinit$$00000000  c_w.l(libinit.o)
    0x080001de   0x080001de   0x00000000   Code   RO          173    .ARM.Collect$$libinit$$00000002  c_w.l(libinit2.o)
    0x080001de   0x080001de   0x00000000   Code   RO          175    .ARM.Collect$$libinit$$00000004  c_w.l(libinit2.o)
    0x080001de   0x080001de   0x00000000   Code   RO          177    .ARM.Collect$$libinit$$00000006  c_w.l(libinit2.o)
    0x080001de   0x080001de   0x00000000   Code   RO          180    .ARM.Collect$$libinit$$0000000C  c_w.l(libinit2.o)
    0x080001de   0x080001de   0x00000000   Code   RO          182    .ARM.Collect$$libinit$$0000000E  c_w.l(libinit2.o)
    0x080001de   0x080001de   0x00000000   Code   RO          184    .ARM.Collect$$libinit$$00000010  c_w.l(libinit2.o)
    0x080001de   0x080001de   0x00000000   Code   RO          187    .ARM.Collect$$libinit$$00000013  c_w.l(libinit2.o)
    0x080001de   0x080001de   0x00000000   Code   RO          189    .ARM.Collect$$libinit$$00000015  c_w.l(libinit2.o)
    0x080001de   0x080001de   0x00000000   Code   RO          191    .ARM.Collect$$libinit$$00000017  c_w.l(libinit2.o)
    0x080001de   0x080001de   0x00000000   Code   RO          193    .ARM.Collect$$libinit$$00000019  c_w.l(libinit2.o)
    0x080001de   0x080001de   0x00000000   Code   RO          195    .ARM.Collect$$libinit$$0000001B  c_w.l(libinit2.o)
    0x080001de   0x080001de   0x00000000   Code   RO          197    .ARM.Collect$$libinit$$0000001D  c_w.l(libinit2.o)
    0x080001de   0x080001de   0x00000000   Code   RO          199    .ARM.Collect$$libinit$$0000001F  c_w.l(libinit2.o)
    0x080001de   0x080001de   0x00000000   Code   RO          201    .ARM.Collect$$libinit$$00000021  c_w.l(libinit2.o)
    0x080001de   0x080001de   0x00000000   Code   RO          203    .ARM.Collect$$libinit$$00000023  c_w.l(libinit2.o)
    0x080001de   0x080001de   0x00000000   Code   RO          205    .ARM.Collect$$libinit$$00000025  c_w.l(libinit2.o)
    0x080001de   0x080001de   0x00000000   Code   RO          207    .ARM.Collect$$libinit$$00000027  c_w.l(libinit2.o)
    0x080001de   0x080001de   0x00000000   Code   RO          211    .ARM.Collect$$libinit$$0000002E  c_w.l(libinit2.o)
    0x080001de   0x080001de   0x00000000   Code   RO          213    .ARM.Collect$$libinit$$00000030  c_w.l(libinit2.o)
    0x080001de   0x080001de   0x00000000   Code   RO          215    .ARM.Collect$$libinit$$00000032  c_w.l(libinit2.o)
    0x080001de   0x080001de   0x00000000   Code   RO          217    .ARM.Collect$$libinit$$00000034  c_w.l(libinit2.o)
    0x080001de   0x080001de   0x00000002   Code   RO          218    .ARM.Collect$$libinit$$00000035  c_w.l(libinit2.o)
    0x080001e0   0x080001e0   0x00000002   Code   RO          233    .ARM.Collect$$libshutdown$$00000000  c_w.l(libshutdown.o)
    0x080001e2   0x080001e2   0x00000000   Code   RO          242    .ARM.Collect$$libshutdown$$00000002  c_w.l(libshutdown2.o)
    0x080001e2   0x080001e2   0x00000000   Code   RO          244    .ARM.Collect$$libshutdown$$00000004  c_w.l(libshutdown2.o)
    0x080001e2   0x080001e2   0x00000000   Code   RO          247    .ARM.Collect$$libshutdown$$00000007  c_w.l(libshutdown2.o)
    0x080001e2   0x080001e2   0x00000000   Code   RO          250    .ARM.Collect$$libshutdown$$0000000A  c_w.l(libshutdown2.o)
    0x080001e2   0x080001e2   0x00000000   Code   RO          252    .ARM.Collect$$libshutdown$$0000000C  c_w.l(libshutdown2.o)
    0x080001e2   0x080001e2   0x00000000   Code   RO          255    .ARM.Collect$$libshutdown$$0000000F  c_w.l(libshutdown2.o)
    0x080001e2   0x080001e2   0x00000002   Code   RO          256    .ARM.Collect$$libshutdown$$00000010  c_w.l(libshutdown2.o)
    0x080001e4   0x080001e4   0x00000000   Code   RO          133    .ARM.Collect$$rtentry$$00000000  c_w.l(__rtentry.o)
    0x080001e4   0x080001e4   0x00000000   Code   RO          146    .ARM.Collect$$rtentry$$00000002  c_w.l(__rtentry2.o)
    0x080001e4   0x080001e4   0x00000006   Code   RO          158    .ARM.Collect$$rtentry$$00000004  c_w.l(__rtentry4.o)
    0x080001ea   0x080001ea   0x00000000   Code   RO          148    .ARM.Collect$$rtentry$$00000009  c_w.l(__rtentry2.o)
    0x080001ea   0x080001ea   0x00000004   Code   RO          149    .ARM.Collect$$rtentry$$0000000A  c_w.l(__rtentry2.o)
    0x080001ee   0x080001ee   0x00000000   Code   RO          151    .ARM.Collect$$rtentry$$0000000C  c_w.l(__rtentry2.o)
    0x080001ee   0x080001ee   0x00000008   Code   RO          152    .ARM.Collect$$rtentry$$0000000D  c_w.l(__rtentry2.o)
    0x080001f6   0x080001f6   0x00000002   Code   RO          170    .ARM.Collect$$rtexit$$00000000  c_w.l(rtexit.o)
    0x080001f8   0x080001f8   0x00000000   Code   RO          220    .ARM.Collect$$rtexit$$00000002  c_w.l(rtexit2.o)
    0x080001f8   0x080001f8   0x00000004   Code   RO          221    .ARM.Collect$$rtexit$$00000003  c_w.l(rtexit2.o)
    0x080001fc   0x080001fc   0x00000006   Code   RO          222    .ARM.Collect$$rtexit$$00000004  c_w.l(rtexit2.o)
    0x08000202   0x08000202   0x00000002   PAD
    0x08000204   0x08000204   0x000005ce   Code   RO            1    .text               main.o
    0x080007d2   0x080007d2   0x00000002   PAD
    0x080007d4   0x080007d4   0x000003fa   Code   RO           13    .text               bldc.o
    0x08000bce   0x08000bce   0x00000002   PAD
    0x08000bd0   0x08000bd0   0x000007a8   Code   RO           38    .text               setup.o
    0x08001378   0x08001378   0x00000142   Code   RO           48    .text               it.o
    0x080014ba   0x080014ba   0x00000002   PAD
    0x080014bc   0x080014bc   0x0000006c   Code   RO           53    .text               comms.o
    0x08001528   0x08001528   0x00000122   Code   RO           56    .text               commssteering.o
    0x0800164a   0x0800164a   0x00000002   PAD
    0x0800164c   0x0800164c   0x00000182   Code   RO           60    .text               commsmasterslave.o
    0x080017ce   0x080017ce   0x00000002   PAD
    0x080017d0   0x080017d0   0x000005a6   Code   RO           65    .text               gd32f1x0_adc.o
    0x08001d76   0x08001d76   0x00000002   PAD
    0x08001d78   0x08001d78   0x0000034c   Code   RO           69    .text               gd32f1x0_dma.o
    0x080020c4   0x080020c4   0x000000da   Code   RO           71    .text               gd32f1x0_fwdgt.o
    0x0800219e   0x0800219e   0x00000002   PAD
    0x080021a0   0x080021a0   0x00000198   Code   RO           73    .text               gd32f1x0_gpio.o
    0x08002338   0x08002338   0x00000130   Code   RO           78    .text               gd32f1x0_misc.o
    0x08002468   0x08002468   0x00000730   Code   RO           87    .text               gd32f1x0_rcu.o
    0x08002b98   0x08002b98   0x00000d60   Code   RO           92    .text               gd32f1x0_timer.o
    0x080038f8   0x080038f8   0x0000063e   Code   RO           94    .text               gd32f1x0_usart.o
    0x08003f36   0x08003f36   0x00000002   PAD
    0x08003f38   0x08003f38   0x00000040   Code   RO          101    .text               startup_gd32f1x0.o
    0x08003f78   0x08003f78   0x0000013c   Code   RO          102    .text               system_gd32f1x0.o
    0x080040b4   0x080040b4   0x00000006   Code   RO          107    .text               c_w.l(heapauxi.o)
    0x080040ba   0x080040ba   0x0000004a   Code   RO          162    .text               c_w.l(sys_stackheap_outer.o)
    0x08004104   0x08004104   0x00000012   Code   RO          163    .text               c_w.l(exit.o)
    0x08004116   0x08004116   0x00000002   PAD
    0x08004118   0x08004118   0x00000008   Code   RO          168    .text               c_w.l(libspace.o)
    0x08004120   0x08004120   0x0000000c   Code   RO          228    .text               c_w.l(sys_exit.o)
    0x0800412c   0x0800412c   0x00000002   Code   RO          236    .text               c_w.l(use_no_semi.o)
    0x0800412e   0x0800412e   0x00000000   Code   RO          237    .text               c_w.l(indicate_semi.o)
    0x0800412e   0x0800412e   0x00000002   PAD
    0x08004130   0x08004130   0x00000062   Code   RO          109    x$fpl$d2f           fz_ws.l(d2f.o)
    0x08004192   0x08004192   0x00000002   PAD
    0x08004194   0x08004194   0x00000150   Code   RO          110    x$fpl$dadd          fz_ws.l(daddsub_clz.o)
    0x080042e4   0x080042e4   0x00000018   Code   RO          160    x$fpl$dcmpinf       fz_ws.l(dcmpi.o)
    0x080042fc   0x080042fc   0x000002b4   Code   RO          115    x$fpl$ddiv          fz_ws.l(ddiv.o)
    0x080045b0   0x080045b0   0x00000078   Code   RO          134    x$fpl$deqf          fz_ws.l(deqf.o)
    0x08004628   0x08004628   0x0000002e   Code   RO          117    x$fpl$dflt          fz_ws.l(dflt_clz.o)
    0x08004656   0x08004656   0x00000026   Code   RO          116    x$fpl$dfltu         fz_ws.l(dflt_clz.o)
    0x0800467c   0x0800467c   0x00000078   Code   RO          135    x$fpl$dgeqf         fz_ws.l(dgeqf.o)
    0x080046f4   0x080046f4   0x00000078   Code   RO          136    x$fpl$dleqf         fz_ws.l(dleqf.o)
    0x0800476c   0x0800476c   0x00000154   Code   RO          119    x$fpl$dmul          fz_ws.l(dmul.o)
    0x080048c0   0x080048c0   0x0000009c   Code   RO          137    x$fpl$dnaninf       fz_ws.l(dnaninf.o)
    0x0800495c   0x0800495c   0x0000000c   Code   RO          138    x$fpl$dretinf       fz_ws.l(dretinf.o)
    0x08004968   0x08004968   0x000001dc   Code   RO          112    x$fpl$dsub          fz_ws.l(daddsub_clz.o)
    0x08004b44   0x08004b44   0x00000056   Code   RO          120    x$fpl$f2d           fz_ws.l(f2d.o)
    0x08004b9a   0x08004b9a   0x00000002   PAD
    0x08004b9c   0x08004b9c   0x000000c4   Code   RO          121    x$fpl$fadd          fz_ws.l(faddsub_clz.o)
    0x08004c60   0x08004c60   0x00000054   Code   RO          113    x$fpl$fcmp          fz_ws.l(dcmp.o)
    0x08004cb4   0x08004cb4   0x00000054   Code   RO          124    x$fpl$fcmp          fz_ws.l(fcmp.o)
    0x08004d08   0x08004d08   0x00000018   Code   RO          161    x$fpl$fcmpinf       fz_ws.l(fcmpi.o)
    0x08004d20   0x08004d20   0x00000184   Code   RO          126    x$fpl$fdiv          fz_ws.l(fdiv.o)
    0x08004ea4   0x08004ea4   0x00000068   Code   RO          139    x$fpl$feqf          fz_ws.l(feqf.o)
    0x08004f0c   0x08004f0c   0x00000036   Code   RO          127    x$fpl$ffix          fz_ws.l(ffix.o)
    0x08004f42   0x08004f42   0x00000002   PAD
    0x08004f44   0x08004f44   0x00000030   Code   RO          130    x$fpl$fflt          fz_ws.l(fflt_clz.o)
    0x08004f74   0x08004f74   0x00000026   Code   RO          129    x$fpl$ffltu         fz_ws.l(fflt_clz.o)
    0x08004f9a   0x08004f9a   0x00000002   PAD
    0x08004f9c   0x08004f9c   0x00000068   Code   RO          140    x$fpl$fgeqf         fz_ws.l(fgeqf.o)
    0x08005004   0x08005004   0x00000068   Code   RO          141    x$fpl$fleqf         fz_ws.l(fleqf.o)
    0x0800506c   0x0800506c   0x00000102   Code   RO          132    x$fpl$fmul          fz_ws.l(fmul.o)
    0x0800516e   0x0800516e   0x0000008c   Code   RO          142    x$fpl$fnaninf       fz_ws.l(fnaninf.o)
    0x080051fa   0x080051fa   0x0000000a   Code   RO          143    x$fpl$fretinf       fz_ws.l(fretinf.o)
    0x08005204   0x08005204   0x000000ea   Code   RO          123    x$fpl$fsub          fz_ws.l(faddsub_clz.o)
    0x080052ee   0x080052ee   0x00000000   Code   RO          144    x$fpl$usenofp       fz_ws.l(usenofp.o)
    0x080052ee   0x080052ee   0x0000000c   Data   RO           75    .rodata..Lswitch.table.gpio_deinit.1  gd32f1x0_gpio.o
    0x080052fa   0x080052fa   0x00000008   Data   RO           89    .rodata.cst8        gd32f1x0_rcu.o
    0x08005302   0x08005302   0x00000008   Data   RO           29    .rodata.hall_to_pos  bldc.o
    0x0800530a   0x0800530a   0x00000002   PAD
    0x0800530c   0x0800530c   0x000002d4   Data   RO           10    .rodata.lookUpTableAngle  main.o
    0x080055e0   0x080055e0   0x00000020   Data   RO          274    Region$$Table       anon$$obj.o


    Execution Region RW_IRAM1 (Exec base: 0x20000000, Load base: 0x08005600, Size: 0x00000970, Max: 0x00002000, ABSOLUTE)

    Exec Addr    Load Addr    Size         Type   Attr      Idx    E Section Name        Object

    0x20000000   0x08005600   0x00000004   Data   RW          104    .data.SystemCoreClock  system_gd32f1x0.o
    0x20000004   0x08005604   0x00000004   Data   RW           16    .data.batteryVoltage  bldc.o
    0x20000008   0x08005608   0x00000001   Data   RW            6    .data.beepsBackwards  main.o
    0x20000009   0x08005609   0x00000001   PAD
    0x2000000a   0x0800560a   0x00000002   Data   RW           58    .data.iReceivePos   commssteering.o
    0x2000000c   0x0800560c   0x00000002   Data   RW           62    .data.iReceivePos   commsmasterslave.o
    0x2000000e   0x0800560e   0x00000002   Data   RW           27    .data.offsetdc      bldc.o
    0x20000010   0x08005610   0x00000001   Data   RW           51    .data.timedOut      it.o
    0x20000011   0x08005611   0x00000007   PAD
    0x20000018        -       0x00000060   Zero   RW          169    .bss                c_w.l(libspace.o)
    0x20000078        -       0x00000007   Zero   RW           59    .bss.aReceiveBuffer  commssteering.o
    0x2000007f        -       0x0000000c   Zero   RW           63    .bss.aReceiveBuffer  commsmasterslave.o
    0x2000008b   0x08005611   0x00000001   PAD
    0x2000008c        -       0x00000004   Zero   RW           30    .bss.adc_buffer     bldc.o
    0x20000090        -       0x00000001   Zero   RW           20    .bss.bldc_enable    bldc.o
    0x20000091   0x08005611   0x00000001   PAD
    0x20000092        -       0x00000002   Zero   RW           19    .bss.bldc_inputFilterPwm  bldc.o
    0x20000094        -       0x00000002   Zero   RW           21    .bss.bldc_outputFilterPwm  bldc.o
    0x20000096        -       0x00000001   Zero   RW           23    .bss.buzzerFreq     bldc.o
    0x20000097        -       0x00000001   Zero   RW           24    .bss.buzzerPattern  bldc.o
    0x20000098        -       0x00000002   Zero   RW           25    .bss.buzzerTimer    bldc.o
    0x2000009a        -       0x00000001   Zero   RW           22    .bss.buzzerToggle   bldc.o
    0x2000009b   0x08005611   0x00000001   PAD
    0x2000009c        -       0x00000004   Zero   RW           17    .bss.currentDC      bldc.o
    0x200000a0        -       0x00000024   Zero   RW           44    .bss.dma_init_struct_adc  setup.o
    0x200000c4        -       0x00000024   Zero   RW           45    .bss.dma_init_struct_usart  setup.o
    0x200000e8        -       0x00000004   Zero   RW           36    .bss.filter_reg     bldc.o
    0x200000ec        -       0x00000001   Zero   RW           34    .bss.hall           bldc.o
    0x200000ed        -       0x00000001   Zero   RW           31    .bss.hall_a         bldc.o
    0x200000ee        -       0x00000001   Zero   RW           32    .bss.hall_b         bldc.o
    0x200000ef        -       0x00000001   Zero   RW           33    .bss.hall_c         bldc.o
    0x200000f0        -       0x00000004   Zero   RW            8    .bss.inactivity_timeout_counter  main.o
    0x200000f4        -       0x00000001   Zero   RW           37    .bss.lastPos        bldc.o
    0x200000f5   0x08005611   0x00000003   PAD
    0x200000f8        -       0x00000004   Zero   RW           52    .bss.msTicks        it.o
    0x200000fc        -       0x0000000c   Zero   RW           11    .bss.oDataSlave     main.o
    0x20000108        -       0x00000002   Zero   RW           26    .bss.offsetcount    bldc.o
    0x2000010a        -       0x00000001   Zero   RW           35    .bss.pos            bldc.o
    0x2000010b   0x08005611   0x00000001   PAD
    0x2000010c        -       0x00000004   Zero   RW           18    .bss.realSpeed      bldc.o
    0x20000110        -       0x00000004   Zero   RW            4    .bss.speed          main.o
    0x20000114        -       0x00000004   Zero   RW           28    .bss.speedCounter   bldc.o
    0x20000118        -       0x00000004   Zero   RW            3    .bss.steer          main.o
    0x2000011c        -       0x00000004   Zero   RW            9    .bss.steerCounter   main.o
    0x20000120        -       0x00000004   Zero   RW           50    .bss.timeoutCounter_ms  it.o
    0x20000124        -       0x00000010   Zero   RW           40    .bss.timeoutTimer_paramter_struct  setup.o
    0x20000134        -       0x00000018   Zero   RW           43    .bss.timerBldc_break_parameter_struct  setup.o
    0x2000014c        -       0x00000010   Zero   RW           42    .bss.timerBldc_oc_parameter_struct  setup.o
    0x2000015c        -       0x00000010   Zero   RW           41    .bss.timerBldc_paramter_struct  setup.o
    0x2000016c        -       0x00000001   Zero   RW           46    .bss.usartMasterSlave_rx_buf  setup.o
    0x2000016d        -       0x00000001   Zero   RW           47    .bss.usartSteer_COM_rx_buf  setup.o
    0x2000016e   0x08005611   0x00000002   PAD
    0x20000170        -       0x00000400   Zero   RW           99    HEAP                startup_gd32f1x0.o
    0x20000570        -       0x00000400   Zero   RW           98    STACK               startup_gd32f1x0.o


==============================================================================

Image component sizes


      Code (inc. data)   RO Data    RW Data    ZI Data      Debug   Object Name

      1018         12          8          6         38          0   bldc.o
       108          0          0          0          0          0   comms.o
       386          0          0          2         12          0   commsmasterslave.o
       290          0          0          2          7          0   commssteering.o
      1446         16          0          0          0          0   gd32f1x0_adc.o
       844          8          0          0          0          0   gd32f1x0_dma.o
       218          0          0          0          0          0   gd32f1x0_fwdgt.o
       408          0         12          0          0          0   gd32f1x0_gpio.o
       304          0          0          0          0          0   gd32f1x0_misc.o
      1840         34          8          0          0          0   gd32f1x0_rcu.o
      3424         44          0          0          0          0   gd32f1x0_timer.o
      1598          8          0          0          0          0   gd32f1x0_usart.o
       322          0          0          1          8          0   it.o
      1486          0        724          1         28          0   main.o
      1960          0          0          0        146          0   setup.o
        64         26        360          0       2048          0   startup_gd32f1x0.o
       316         16          0          4          0          0   system_gd32f1x0.o

    ----------------------------------------------------------------------
     16048        164       1146         20       2300          0   Object Totals
         0          0         32          0          0          0   (incl. Generated)
        16          0          2          4         13          0   (incl. Padding)

    ----------------------------------------------------------------------

      Code (inc. data)   RO Data    RW Data    ZI Data      Debug   Library Member Name

         8          0          0          0          0          0   __main.o
         0          0          0          0          0          0   __rtentry.o
        12          0          0          0          0          0   __rtentry2.o
         6          0          0          0          0          0   __rtentry4.o
        52          8          0          0          0          0   __scatter.o
        26          0          0          0          0          0   __scatter_copy.o
        28          0          0          0          0          0   __scatter_zi.o
        18          0          0          0          0          0   exit.o
         6          0          0          0          0          0   heapauxi.o
         0          0          0          0          0          0   indicate_semi.o
         2          0          0          0          0          0   libinit.o
         2          0          0          0          0          0   libinit2.o
         2          0          0          0          0          0   libshutdown.o
         2          0          0          0          0          0   libshutdown2.o
         8          4          0          0         96          0   libspace.o
         2          0          0          0          0          0   rtexit.o
        10          0          0          0          0          0   rtexit2.o
        12          4          0          0          0          0   sys_exit.o
        74          0          0          0          0          0   sys_stackheap_outer.o
         2          0          0          0          0          0   use_no_semi.o
        98          4          0          0          0          0   d2f.o
       812         16          0          0          0          0   daddsub_clz.o
        84          0          0          0          0          0   dcmp.o
        24          0          0          0          0          0   dcmpi.o
       692        140          0          0          0          0   ddiv.o
       120          4          0          0          0          0   deqf.o
        84          0          0          0          0          0   dflt_clz.o
       120          4          0          0          0          0   dgeqf.o
       120          4          0          0          0          0   dleqf.o
       340         12          0          0          0          0   dmul.o
       156          4          0          0          0          0   dnaninf.o
        12          0          0          0          0          0   dretinf.o
        86          4          0          0          0          0   f2d.o
       430          8          0          0          0          0   faddsub_clz.o
        84          0          0          0          0          0   fcmp.o
        24          0          0          0          0          0   fcmpi.o
       388         76          0          0          0          0   fdiv.o
       104          4          0          0          0          0   feqf.o
        54          4          0          0          0          0   ffix.o
        86          0          0          0          0          0   fflt_clz.o
       104          4          0          0          0          0   fgeqf.o
       104          4          0          0          0          0   fleqf.o
       258          4          0          0          0          0   fmul.o
       140          4          0          0          0          0   fnaninf.o
        10          0          0          0          0          0   fretinf.o
         0          0          0          0          0          0   usenofp.o

    ----------------------------------------------------------------------
      4822        316          0          0         96          0   Library Totals
        16          0          0          0          0          0   (incl. Padding)

    ----------------------------------------------------------------------

      Code (inc. data)   RO Data    RW Data    ZI Data      Debug   Library Name

       272         16          0          0         96          0   c_w.l
      4534        300          0          0          0          0   fz_ws.l

    ----------------------------------------------------------------------
      4822        316          0          0         96          0   Library Totals

    ----------------------------------------------------------------------

==============================================================================


      Code (inc. data)   RO Data    RW Data    ZI Data      Debug   

     20870        480       1146         20       2396          0   Grand Totals
     20870        480       1146         20       2396          0   ELF Image Totals
     20870        480       1146         20          0          0   ROM Totals

==============================================================================

    Total RO  Size (Code + RO Data)                22016 (  21.50kB)
    Total RW  Size (RW Data + ZI Data)              2416 (   2.36kB)
    Total ROM Size (Code + RO Data + RW Data)      22036 (  21.52kB)

==============================================================================

